
FreecutAL.elf:     file format elf32-avr

Sections:
Idx Name          Size      VMA       LMA       File off  Algn
  0 .data         000000da  00800100  00002b32  00002bc6  2**0
                  CONTENTS, ALLOC, LOAD, DATA
  1 .text         00002b32  00000000  00000000  00000094  2**1
                  CONTENTS, ALLOC, LOAD, READONLY, CODE
  2 .bss          00000247  008001da  008001da  00002ca0  2**0
                  ALLOC
  3 .comment      0000005c  00000000  00000000  00002ca0  2**0
                  CONTENTS, READONLY
  4 .note.gnu.avr.deviceinfo 0000003c  00000000  00000000  00002cfc  2**2
                  CONTENTS, READONLY
  5 .debug_info   00000780  00000000  00000000  00002d38  2**0
                  CONTENTS, READONLY, DEBUGGING
  6 .debug_abbrev 00000718  00000000  00000000  000034b8  2**0
                  CONTENTS, READONLY, DEBUGGING
  7 .debug_line   00000169  00000000  00000000  00003bd0  2**0
                  CONTENTS, READONLY, DEBUGGING
  8 .debug_str    0000027d  00000000  00000000  00003d39  2**0
                  CONTENTS, READONLY, DEBUGGING

Disassembly of section .text:

00000000 <__vectors>:
       0:	7d c0       	rjmp	.+250    	; 0xfc <__ctors_end>
       2:	00 00       	nop
       4:	99 c0       	rjmp	.+306    	; 0x138 <__bad_interrupt>
       6:	00 00       	nop
       8:	97 c0       	rjmp	.+302    	; 0x138 <__bad_interrupt>
       a:	00 00       	nop
       c:	95 c0       	rjmp	.+298    	; 0x138 <__bad_interrupt>
       e:	00 00       	nop
      10:	93 c0       	rjmp	.+294    	; 0x138 <__bad_interrupt>
      12:	00 00       	nop
      14:	91 c0       	rjmp	.+290    	; 0x138 <__bad_interrupt>
      16:	00 00       	nop
      18:	8f c0       	rjmp	.+286    	; 0x138 <__bad_interrupt>
      1a:	00 00       	nop
      1c:	8d c0       	rjmp	.+282    	; 0x138 <__bad_interrupt>
      1e:	00 00       	nop
      20:	8b c0       	rjmp	.+278    	; 0x138 <__bad_interrupt>
      22:	00 00       	nop
      24:	0c 94 1f 0c 	jmp	0x183e	; 0x183e <__vector_9>
      28:	87 c0       	rjmp	.+270    	; 0x138 <__bad_interrupt>
      2a:	00 00       	nop
      2c:	85 c0       	rjmp	.+266    	; 0x138 <__bad_interrupt>
      2e:	00 00       	nop
      30:	83 c0       	rjmp	.+262    	; 0x138 <__bad_interrupt>
      32:	00 00       	nop
      34:	81 c0       	rjmp	.+258    	; 0x138 <__bad_interrupt>
      36:	00 00       	nop
      38:	7f c0       	rjmp	.+254    	; 0x138 <__bad_interrupt>
      3a:	00 00       	nop
      3c:	0c 94 f9 0b 	jmp	0x17f2	; 0x17f2 <__vector_15>
      40:	7b c0       	rjmp	.+246    	; 0x138 <__bad_interrupt>
      42:	00 00       	nop
      44:	79 c0       	rjmp	.+242    	; 0x138 <__bad_interrupt>
      46:	00 00       	nop
      48:	77 c0       	rjmp	.+238    	; 0x138 <__bad_interrupt>
      4a:	00 00       	nop
      4c:	75 c0       	rjmp	.+234    	; 0x138 <__bad_interrupt>
      4e:	00 00       	nop
      50:	73 c0       	rjmp	.+230    	; 0x138 <__bad_interrupt>
      52:	00 00       	nop
      54:	71 c0       	rjmp	.+226    	; 0x138 <__bad_interrupt>
      56:	00 00       	nop
      58:	6f c0       	rjmp	.+222    	; 0x138 <__bad_interrupt>
      5a:	00 00       	nop
      5c:	6d c0       	rjmp	.+218    	; 0x138 <__bad_interrupt>
      5e:	00 00       	nop
      60:	6b c0       	rjmp	.+214    	; 0x138 <__bad_interrupt>
      62:	00 00       	nop
      64:	69 c0       	rjmp	.+210    	; 0x138 <__bad_interrupt>
      66:	00 00       	nop
      68:	67 c0       	rjmp	.+206    	; 0x138 <__bad_interrupt>
      6a:	00 00       	nop
      6c:	65 c0       	rjmp	.+202    	; 0x138 <__bad_interrupt>
      6e:	00 00       	nop
      70:	63 c0       	rjmp	.+198    	; 0x138 <__bad_interrupt>
      72:	00 00       	nop
      74:	61 c0       	rjmp	.+194    	; 0x138 <__bad_interrupt>
      76:	00 00       	nop
      78:	0c 94 99 08 	jmp	0x1132	; 0x1132 <__vector_30>
      7c:	f1 c7       	rjmp	.+4066   	; 0x1060 <__vector_31>
      7e:	00 00       	nop
      80:	5b c0       	rjmp	.+182    	; 0x138 <__bad_interrupt>
      82:	00 00       	nop
      84:	59 c0       	rjmp	.+178    	; 0x138 <__bad_interrupt>
      86:	00 00       	nop
      88:	57 c0       	rjmp	.+174    	; 0x138 <__bad_interrupt>
      8a:	00 00       	nop
      8c:	86 01       	movw	r16, r12
      8e:	b2 03       	fmuls	r19, r18
      90:	d4 01       	movw	r26, r8
      92:	ed 01       	movw	r28, r26
      94:	00 02       	muls	r16, r16
      96:	bf 01       	movw	r22, r30
      98:	16 02       	muls	r17, r22
      9a:	1f 02       	muls	r17, r31
      9c:	2a 02       	muls	r18, r26
      9e:	91 02       	muls	r25, r17
      a0:	c5 02       	muls	r28, r21
      a2:	b2 03       	fmuls	r19, r18
      a4:	35 02       	muls	r19, r21
      a6:	6f 02       	muls	r22, r31
      a8:	52 02       	muls	r21, r18
      aa:	90 03       	fmuls	r17, r16
      ac:	8d 02       	muls	r24, r29
      ae:	8f 02       	muls	r24, r31
      b0:	a6 03       	fmuls	r18, r22
      b2:	a9 03       	fmulsu	r18, r17
      b4:	ad 03       	fmulsu	r18, r21
      b6:	ab 03       	fmulsu	r18, r19
      b8:	18 03       	fmul	r17, r16
      ba:	75 03       	mulsu	r23, r21
      bc:	b8 01       	movw	r22, r16

000000be <__trampolines_end>:
      be:	63 64       	ori	r22, 0x43	; 67
      c0:	69 6e       	ori	r22, 0xE9	; 233
      c2:	6f 70       	andi	r22, 0x0F	; 15
      c4:	73 75       	andi	r23, 0x53	; 83
      c6:	78 58       	subi	r23, 0x88	; 136
      c8:	5b 00       	.word	0x005b	; ????

000000ca <__c.2275>:
      ca:	25 64 00                                            %d.

000000cd <__c.2261>:
      cd:	25 64 00                                            %d.

000000d0 <__c.2249>:
      d0:	25 64 00                                            %d.

000000d3 <__c.2113>:
      d3:	53 63 61 6c 65 20 73 65 74 20 74 6f 3a 20 28 25     Scale set to: (%
      e3:	66 2c 25 66 29 20 74 72 61 6e 73 6c 61 74 65 20     f,%f) translate 
      f3:	28 25 66 2c 25 66 29 00 00                          (%f,%f)..

000000fc <__ctors_end>:
      fc:	11 24       	eor	r1, r1
      fe:	1f be       	out	0x3f, r1	; 63
     100:	cf ef       	ldi	r28, 0xFF	; 255
     102:	d0 e1       	ldi	r29, 0x10	; 16
     104:	de bf       	out	0x3e, r29	; 62
     106:	cd bf       	out	0x3d, r28	; 61

00000108 <__do_copy_data>:
     108:	11 e0       	ldi	r17, 0x01	; 1
     10a:	a0 e0       	ldi	r26, 0x00	; 0
     10c:	b1 e0       	ldi	r27, 0x01	; 1
     10e:	e2 e3       	ldi	r30, 0x32	; 50
     110:	fb e2       	ldi	r31, 0x2B	; 43
     112:	00 e0       	ldi	r16, 0x00	; 0
     114:	0b bf       	out	0x3b, r16	; 59
     116:	02 c0       	rjmp	.+4      	; 0x11c <__do_copy_data+0x14>
     118:	07 90       	elpm	r0, Z+
     11a:	0d 92       	st	X+, r0
     11c:	aa 3d       	cpi	r26, 0xDA	; 218
     11e:	b1 07       	cpc	r27, r17
     120:	d9 f7       	brne	.-10     	; 0x118 <__do_copy_data+0x10>

00000122 <__do_clear_bss>:
     122:	24 e0       	ldi	r18, 0x04	; 4
     124:	aa ed       	ldi	r26, 0xDA	; 218
     126:	b1 e0       	ldi	r27, 0x01	; 1
     128:	01 c0       	rjmp	.+2      	; 0x12c <.do_clear_bss_start>

0000012a <.do_clear_bss_loop>:
     12a:	1d 92       	st	X+, r1

0000012c <.do_clear_bss_start>:
     12c:	a1 32       	cpi	r26, 0x21	; 33
     12e:	b2 07       	cpc	r27, r18
     130:	e1 f7       	brne	.-8      	; 0x12a <.do_clear_bss_loop>
     132:	1b d6       	rcall	.+3126   	; 0xd6a <main>
     134:	0c 94 97 15 	jmp	0x2b2e	; 0x2b2e <_exit>

00000138 <__bad_interrupt>:
     138:	63 cf       	rjmp	.-314    	; 0x0 <__vectors>

0000013a <cli_poll>:
     13a:	1f 93       	push	r17
     13c:	cf 93       	push	r28
     13e:	df 93       	push	r29
     140:	00 d0       	rcall	.+0      	; 0x142 <cli_poll+0x8>
     142:	00 d0       	rcall	.+0      	; 0x144 <cli_poll+0xa>
     144:	1f 92       	push	r1
     146:	cd b7       	in	r28, 0x3d	; 61
     148:	de b7       	in	r29, 0x3e	; 62
     14a:	10 e0       	ldi	r17, 0x00	; 0
     14c:	0e 94 ee 0c 	call	0x19dc	; 0x19dc <usb_getc>
     150:	8f 3f       	cpi	r24, 0xFF	; 255
     152:	09 f4       	brne	.+2      	; 0x156 <cli_poll+0x1c>
     154:	40 c0       	rjmp	.+128    	; 0x1d6 <cli_poll+0x9c>
     156:	90 91 01 01 	lds	r25, 0x0101	; 0x800101 <Lang>
     15a:	91 30       	cpi	r25, 0x01	; 1
     15c:	19 f0       	breq	.+6      	; 0x164 <cli_poll+0x2a>
     15e:	92 30       	cpi	r25, 0x02	; 2
     160:	61 f0       	breq	.+24     	; 0x17a <cli_poll+0x40>
     162:	f4 cf       	rjmp	.-24     	; 0x14c <cli_poll+0x12>
     164:	9e 01       	movw	r18, r28
     166:	2b 5f       	subi	r18, 0xFB	; 251
     168:	3f 4f       	sbci	r19, 0xFF	; 255
     16a:	ae 01       	movw	r20, r28
     16c:	4f 5f       	subi	r20, 0xFF	; 255
     16e:	5f 4f       	sbci	r21, 0xFF	; 255
     170:	be 01       	movw	r22, r28
     172:	6d 5f       	subi	r22, 0xFD	; 253
     174:	7f 4f       	sbci	r23, 0xFF	; 255
     176:	90 d0       	rcall	.+288    	; 0x298 <hpgl_char>
     178:	18 2f       	mov	r17, r24
     17a:	14 30       	cpi	r17, 0x04	; 4
     17c:	69 f0       	breq	.+26     	; 0x198 <cli_poll+0x5e>
     17e:	18 f4       	brcc	.+6      	; 0x186 <cli_poll+0x4c>
     180:	13 30       	cpi	r17, 0x03	; 3
     182:	99 f0       	breq	.+38     	; 0x1aa <cli_poll+0x70>
     184:	e3 cf       	rjmp	.-58     	; 0x14c <cli_poll+0x12>
     186:	16 30       	cpi	r17, 0x06	; 6
     188:	d9 f0       	breq	.+54     	; 0x1c0 <cli_poll+0x86>
     18a:	17 30       	cpi	r17, 0x07	; 7
     18c:	f9 f6       	brne	.-66     	; 0x14c <cli_poll+0x12>
     18e:	69 81       	ldd	r22, Y+1	; 0x01
     190:	7a 81       	ldd	r23, Y+2	; 0x02
     192:	8b 81       	ldd	r24, Y+3	; 0x03
     194:	9c 81       	ldd	r25, Y+4	; 0x04
     196:	1c c0       	rjmp	.+56     	; 0x1d0 <cli_poll+0x96>
     198:	8b 81       	ldd	r24, Y+3	; 0x03
     19a:	9c 81       	ldd	r25, Y+4	; 0x04
     19c:	97 fd       	sbrc	r25, 7
     19e:	d6 cf       	rjmp	.-84     	; 0x14c <cli_poll+0x12>
     1a0:	69 81       	ldd	r22, Y+1	; 0x01
     1a2:	7a 81       	ldd	r23, Y+2	; 0x02
     1a4:	77 fd       	sbrc	r23, 7
     1a6:	d2 cf       	rjmp	.-92     	; 0x14c <cli_poll+0x12>
     1a8:	13 c0       	rjmp	.+38     	; 0x1d0 <cli_poll+0x96>
     1aa:	8b 81       	ldd	r24, Y+3	; 0x03
     1ac:	9c 81       	ldd	r25, Y+4	; 0x04
     1ae:	97 fd       	sbrc	r25, 7
     1b0:	cd cf       	rjmp	.-102    	; 0x14c <cli_poll+0x12>
     1b2:	69 81       	ldd	r22, Y+1	; 0x01
     1b4:	7a 81       	ldd	r23, Y+2	; 0x02
     1b6:	77 fd       	sbrc	r23, 7
     1b8:	c9 cf       	rjmp	.-110    	; 0x14c <cli_poll+0x12>
     1ba:	0e 94 48 09 	call	0x1290	; 0x1290 <stepper_draw>
     1be:	c6 cf       	rjmp	.-116    	; 0x14c <cli_poll+0x12>
     1c0:	1a 82       	std	Y+2, r1	; 0x02
     1c2:	19 82       	std	Y+1, r1	; 0x01
     1c4:	1c 82       	std	Y+4, r1	; 0x04
     1c6:	1b 82       	std	Y+3, r1	; 0x03
     1c8:	60 e0       	ldi	r22, 0x00	; 0
     1ca:	70 e0       	ldi	r23, 0x00	; 0
     1cc:	80 e0       	ldi	r24, 0x00	; 0
     1ce:	90 e0       	ldi	r25, 0x00	; 0
     1d0:	0e 94 73 09 	call	0x12e6	; 0x12e6 <stepper_move>
     1d4:	bb cf       	rjmp	.-138    	; 0x14c <cli_poll+0x12>
     1d6:	0f 90       	pop	r0
     1d8:	0f 90       	pop	r0
     1da:	0f 90       	pop	r0
     1dc:	0f 90       	pop	r0
     1de:	0f 90       	pop	r0
     1e0:	df 91       	pop	r29
     1e2:	cf 91       	pop	r28
     1e4:	1f 91       	pop	r17
     1e6:	08 95       	ret

000001e8 <dial_poll>:
     1e8:	80 91 e1 01 	lds	r24, 0x01E1	; 0x8001e1 <channel>
     1ec:	95 b1       	in	r25, 0x05	; 5
     1ee:	e8 2f       	mov	r30, r24
     1f0:	f0 e0       	ldi	r31, 0x00	; 0
     1f2:	e5 52       	subi	r30, 0x25	; 37
     1f4:	fe 4f       	sbci	r31, 0xFE	; 254
     1f6:	90 83       	st	Z, r25
     1f8:	8f 5f       	subi	r24, 0xFF	; 255
     1fa:	83 30       	cpi	r24, 0x03	; 3
     1fc:	19 f0       	breq	.+6      	; 0x204 <dial_poll+0x1c>
     1fe:	80 93 e1 01 	sts	0x01E1, r24	; 0x8001e1 <channel>
     202:	05 c0       	rjmp	.+10     	; 0x20e <dial_poll+0x26>
     204:	10 92 e1 01 	sts	0x01E1, r1	; 0x8001e1 <channel>
     208:	81 e0       	ldi	r24, 0x01	; 1
     20a:	80 93 da 01 	sts	0x01DA, r24	; 0x8001da <__data_end>
     20e:	80 91 e1 01 	lds	r24, 0x01E1	; 0x8001e1 <channel>
     212:	80 66       	ori	r24, 0x60	; 96
     214:	87 b9       	out	0x07, r24	; 7
     216:	36 9a       	sbi	0x06, 6	; 6
     218:	80 91 da 01 	lds	r24, 0x01DA	; 0x8001da <__data_end>
     21c:	88 23       	and	r24, r24
     21e:	71 f1       	breq	.+92     	; 0x27c <dial_poll+0x94>
     220:	80 91 dc 01 	lds	r24, 0x01DC	; 0x8001dc <dial_adc+0x1>
     224:	24 e0       	ldi	r18, 0x04	; 4
     226:	82 9f       	mul	r24, r18
     228:	c0 01       	movw	r24, r0
     22a:	11 24       	eor	r1, r1
     22c:	83 58       	subi	r24, 0x83	; 131
     22e:	9f 4f       	sbci	r25, 0xFF	; 255
     230:	6a ef       	ldi	r22, 0xFA	; 250
     232:	70 e0       	ldi	r23, 0x00	; 0
     234:	0e 94 c3 0e 	call	0x1d86	; 0x1d86 <__divmodhi4>
     238:	cb 01       	movw	r24, r22
     23a:	03 96       	adiw	r24, 0x03	; 3
     23c:	20 91 df 01 	lds	r18, 0x01DF	; 0x8001df <pvars+0x1>
     240:	28 17       	cp	r18, r24
     242:	29 f0       	breq	.+10     	; 0x24e <dial_poll+0x66>
     244:	80 93 df 01 	sts	0x01DF, r24	; 0x8001df <pvars+0x1>
     248:	0e 94 86 0c 	call	0x190c	; 0x190c <timer_set_stepper_speed>
     24c:	f8 d2       	rcall	.+1520   	; 0x83e <keypadSet_Speed_state>
     24e:	80 91 dd 01 	lds	r24, 0x01DD	; 0x8001dd <dial_adc+0x2>
     252:	24 e0       	ldi	r18, 0x04	; 4
     254:	82 9f       	mul	r24, r18
     256:	c0 01       	movw	r24, r0
     258:	11 24       	eor	r1, r1
     25a:	83 58       	subi	r24, 0x83	; 131
     25c:	9f 4f       	sbci	r25, 0xFF	; 255
     25e:	6a ef       	ldi	r22, 0xFA	; 250
     260:	70 e0       	ldi	r23, 0x00	; 0
     262:	0e 94 c3 0e 	call	0x1d86	; 0x1d86 <__divmodhi4>
     266:	cb 01       	movw	r24, r22
     268:	03 96       	adiw	r24, 0x03	; 3
     26a:	20 91 e0 01 	lds	r18, 0x01E0	; 0x8001e0 <pvars+0x2>
     26e:	28 17       	cp	r18, r24
     270:	29 f0       	breq	.+10     	; 0x27c <dial_poll+0x94>
     272:	80 93 e0 01 	sts	0x01E0, r24	; 0x8001e0 <pvars+0x2>
     276:	0e 94 aa 0c 	call	0x1954	; 0x1954 <timer_set_pen_pressure>
     27a:	e8 c2       	rjmp	.+1488   	; 0x84c <keypadSet_Pressure_state>
     27c:	08 95       	ret

0000027e <dial_init>:
     27e:	80 91 e1 01 	lds	r24, 0x01E1	; 0x8001e1 <channel>
     282:	80 66       	ori	r24, 0x60	; 96
     284:	87 b9       	out	0x07, r24	; 7
     286:	87 ec       	ldi	r24, 0xC7	; 199
     288:	86 b9       	out	0x06, r24	; 6
     28a:	08 95       	ret

0000028c <hpgl_init>:
     28c:	10 92 13 02 	sts	0x0213, r1	; 0x800213 <pstate>
     290:	83 e0       	ldi	r24, 0x03	; 3
     292:	80 93 14 02 	sts	0x0214, r24	; 0x800214 <etxchar>
     296:	7b c5       	rjmp	.+2806   	; 0xd8e <translate_init>

00000298 <hpgl_char>:
     298:	2f 92       	push	r2
     29a:	3f 92       	push	r3
     29c:	4f 92       	push	r4
     29e:	6f 92       	push	r6
     2a0:	7f 92       	push	r7
     2a2:	8f 92       	push	r8
     2a4:	9f 92       	push	r9
     2a6:	af 92       	push	r10
     2a8:	bf 92       	push	r11
     2aa:	cf 92       	push	r12
     2ac:	df 92       	push	r13
     2ae:	ef 92       	push	r14
     2b0:	ff 92       	push	r15
     2b2:	0f 93       	push	r16
     2b4:	1f 93       	push	r17
     2b6:	cf 93       	push	r28
     2b8:	df 93       	push	r29
     2ba:	18 2f       	mov	r17, r24
     2bc:	eb 01       	movw	r28, r22
     2be:	1a 01       	movw	r2, r20
     2c0:	79 01       	movw	r14, r18
     2c2:	8f ef       	ldi	r24, 0xFF	; 255
     2c4:	9f ef       	ldi	r25, 0xFF	; 255
     2c6:	fa 01       	movw	r30, r20
     2c8:	91 83       	std	Z+1, r25	; 0x01
     2ca:	80 83       	st	Z, r24
     2cc:	99 83       	std	Y+1, r25	; 0x01
     2ce:	88 83       	st	Y, r24
     2d0:	f9 01       	movw	r30, r18
     2d2:	10 82       	st	Z, r1
     2d4:	8d e0       	ldi	r24, 0x0D	; 13
     2d6:	68 2e       	mov	r6, r24
     2d8:	83 e0       	ldi	r24, 0x03	; 3
     2da:	78 2e       	mov	r7, r24
     2dc:	94 ee       	ldi	r25, 0xE4	; 228
     2de:	a9 2e       	mov	r10, r25
     2e0:	91 e0       	ldi	r25, 0x01	; 1
     2e2:	b9 2e       	mov	r11, r25
     2e4:	2a ec       	ldi	r18, 0xCA	; 202
     2e6:	82 2e       	mov	r8, r18
     2e8:	20 e0       	ldi	r18, 0x00	; 0
     2ea:	92 2e       	mov	r9, r18
     2ec:	e0 91 13 02 	lds	r30, 0x0213	; 0x800213 <pstate>
     2f0:	8e 2f       	mov	r24, r30
     2f2:	ee 0f       	add	r30, r30
     2f4:	99 0b       	sbc	r25, r25
     2f6:	aa 0b       	sbc	r26, r26
     2f8:	bb 0b       	sbc	r27, r27
     2fa:	89 31       	cpi	r24, 0x19	; 25
     2fc:	91 05       	cpc	r25, r1
     2fe:	08 f0       	brcs	.+2      	; 0x302 <hpgl_char+0x6a>
     300:	31 c2       	rjmp	.+1122   	; 0x764 <__LOCK_REGION_LENGTH__+0x364>
     302:	fc 01       	movw	r30, r24
     304:	ea 5b       	subi	r30, 0xBA	; 186
     306:	ff 4f       	sbci	r31, 0xFF	; 255
     308:	0c 94 f2 0e 	jmp	0x1de4	; 0x1de4 <__tablejump2__>
     30c:	10 92 00 01 	sts	0x0100, r1	; 0x800100 <__DATA_REGION_ORIGIN__>
     310:	10 92 e8 01 	sts	0x01E8, r1	; 0x8001e8 <si.2163>
     314:	14 34       	cpi	r17, 0x44	; 68
     316:	51 f1       	breq	.+84     	; 0x36c <hpgl_char+0xd4>
     318:	90 f4       	brcc	.+36     	; 0x33e <hpgl_char+0xa6>
     31a:	1d 30       	cpi	r17, 0x0D	; 13
     31c:	09 f4       	brne	.+2      	; 0x320 <hpgl_char+0x88>
     31e:	22 c2       	rjmp	.+1092   	; 0x764 <__LOCK_REGION_LENGTH__+0x364>
     320:	30 f4       	brcc	.+12     	; 0x32e <hpgl_char+0x96>
     322:	87 ef       	ldi	r24, 0xF7	; 247
     324:	81 0f       	add	r24, r17
     326:	82 30       	cpi	r24, 0x02	; 2
     328:	08 f4       	brcc	.+2      	; 0x32c <hpgl_char+0x94>
     32a:	1c c2       	rjmp	.+1080   	; 0x764 <__LOCK_REGION_LENGTH__+0x364>
     32c:	b9 c0       	rjmp	.+370    	; 0x4a0 <__LOCK_REGION_LENGTH__+0xa0>
     32e:	10 32       	cpi	r17, 0x20	; 32
     330:	09 f4       	brne	.+2      	; 0x334 <hpgl_char+0x9c>
     332:	18 c2       	rjmp	.+1072   	; 0x764 <__LOCK_REGION_LENGTH__+0x364>
     334:	11 34       	cpi	r17, 0x41	; 65
     336:	09 f0       	breq	.+2      	; 0x33a <hpgl_char+0xa2>
     338:	b3 c0       	rjmp	.+358    	; 0x4a0 <__LOCK_REGION_LENGTH__+0xa0>
     33a:	85 e0       	ldi	r24, 0x05	; 5
     33c:	47 c0       	rjmp	.+142    	; 0x3cc <hpgl_char+0x134>
     33e:	10 35       	cpi	r17, 0x50	; 80
     340:	79 f0       	breq	.+30     	; 0x360 <hpgl_char+0xc8>
     342:	38 f4       	brcc	.+14     	; 0x352 <hpgl_char+0xba>
     344:	19 34       	cpi	r17, 0x49	; 73
     346:	81 f0       	breq	.+32     	; 0x368 <hpgl_char+0xd0>
     348:	1c 34       	cpi	r17, 0x4C	; 76
     34a:	09 f0       	breq	.+2      	; 0x34e <hpgl_char+0xb6>
     34c:	a9 c0       	rjmp	.+338    	; 0x4a0 <__LOCK_REGION_LENGTH__+0xa0>
     34e:	86 e0       	ldi	r24, 0x06	; 6
     350:	3d c0       	rjmp	.+122    	; 0x3cc <hpgl_char+0x134>
     352:	13 35       	cpi	r17, 0x53	; 83
     354:	39 f0       	breq	.+14     	; 0x364 <hpgl_char+0xcc>
     356:	16 35       	cpi	r17, 0x56	; 86
     358:	09 f0       	breq	.+2      	; 0x35c <hpgl_char+0xc4>
     35a:	a2 c0       	rjmp	.+324    	; 0x4a0 <__LOCK_REGION_LENGTH__+0xa0>
     35c:	88 e0       	ldi	r24, 0x08	; 8
     35e:	36 c0       	rjmp	.+108    	; 0x3cc <hpgl_char+0x134>
     360:	82 e0       	ldi	r24, 0x02	; 2
     362:	34 c0       	rjmp	.+104    	; 0x3cc <hpgl_char+0x134>
     364:	83 e0       	ldi	r24, 0x03	; 3
     366:	32 c0       	rjmp	.+100    	; 0x3cc <hpgl_char+0x134>
     368:	84 e0       	ldi	r24, 0x04	; 4
     36a:	30 c0       	rjmp	.+96     	; 0x3cc <hpgl_char+0x134>
     36c:	87 e0       	ldi	r24, 0x07	; 7
     36e:	2e c0       	rjmp	.+92     	; 0x3cc <hpgl_char+0x134>
     370:	1b 33       	cpi	r17, 0x3B	; 59
     372:	09 f0       	breq	.+2      	; 0x376 <hpgl_char+0xde>
     374:	f7 c1       	rjmp	.+1006   	; 0x764 <__LOCK_REGION_LENGTH__+0x364>
     376:	10 92 13 02 	sts	0x0213, r1	; 0x800213 <pstate>
     37a:	8f ef       	ldi	r24, 0xFF	; 255
     37c:	5d c0       	rjmp	.+186    	; 0x438 <__LOCK_REGION_LENGTH__+0x38>
     37e:	11 34       	cpi	r17, 0x41	; 65
     380:	51 f0       	breq	.+20     	; 0x396 <hpgl_char+0xfe>
     382:	13 35       	cpi	r17, 0x53	; 83
     384:	09 f0       	breq	.+2      	; 0x388 <hpgl_char+0xf0>
     386:	ee c1       	rjmp	.+988    	; 0x764 <__LOCK_REGION_LENGTH__+0x364>
     388:	10 92 e7 01 	sts	0x01E7, r1	; 0x8001e7 <numpad_idx.2164>
     38c:	86 e1       	ldi	r24, 0x16	; 22
     38e:	80 93 13 02 	sts	0x0213, r24	; 0x800213 <pstate>
     392:	84 e1       	ldi	r24, 0x14	; 20
     394:	06 c0       	rjmp	.+12     	; 0x3a2 <hpgl_char+0x10a>
     396:	10 92 e7 01 	sts	0x01E7, r1	; 0x8001e7 <numpad_idx.2164>
     39a:	86 e1       	ldi	r24, 0x16	; 22
     39c:	80 93 13 02 	sts	0x0213, r24	; 0x800213 <pstate>
     3a0:	87 e1       	ldi	r24, 0x17	; 23
     3a2:	80 93 15 02 	sts	0x0215, r24	; 0x800215 <nstate>
     3a6:	de c1       	rjmp	.+956    	; 0x764 <__LOCK_REGION_LENGTH__+0x364>
     3a8:	10 92 e8 01 	sts	0x01E8, r1	; 0x8001e8 <si.2163>
     3ac:	14 34       	cpi	r17, 0x44	; 68
     3ae:	89 f0       	breq	.+34     	; 0x3d2 <hpgl_char+0x13a>
     3b0:	20 f4       	brcc	.+8      	; 0x3ba <hpgl_char+0x122>
     3b2:	11 34       	cpi	r17, 0x41	; 65
     3b4:	81 f4       	brne	.+32     	; 0x3d6 <hpgl_char+0x13e>
     3b6:	81 e0       	ldi	r24, 0x01	; 1
     3b8:	06 c0       	rjmp	.+12     	; 0x3c6 <hpgl_char+0x12e>
     3ba:	17 34       	cpi	r17, 0x47	; 71
     3bc:	09 f4       	brne	.+2      	; 0x3c0 <hpgl_char+0x128>
     3be:	58 c0       	rjmp	.+176    	; 0x470 <__LOCK_REGION_LENGTH__+0x70>
     3c0:	15 35       	cpi	r17, 0x55	; 85
     3c2:	49 f4       	brne	.+18     	; 0x3d6 <hpgl_char+0x13e>
     3c4:	84 e0       	ldi	r24, 0x04	; 4
     3c6:	80 93 00 01 	sts	0x0100, r24	; 0x800100 <__DATA_REGION_ORIGIN__>
     3ca:	89 e0       	ldi	r24, 0x09	; 9
     3cc:	80 93 13 02 	sts	0x0213, r24	; 0x800213 <pstate>
     3d0:	c9 c1       	rjmp	.+914    	; 0x764 <__LOCK_REGION_LENGTH__+0x364>
     3d2:	83 e0       	ldi	r24, 0x03	; 3
     3d4:	f8 cf       	rjmp	.-16     	; 0x3c6 <hpgl_char+0x12e>
     3d6:	8f ef       	ldi	r24, 0xFF	; 255
     3d8:	61 c0       	rjmp	.+194    	; 0x49c <__LOCK_REGION_LENGTH__+0x9c>
     3da:	19 34       	cpi	r17, 0x49	; 73
     3dc:	79 f0       	breq	.+30     	; 0x3fc <hpgl_char+0x164>
     3de:	28 f4       	brcc	.+10     	; 0x3ea <hpgl_char+0x152>
     3e0:	13 34       	cpi	r17, 0x43	; 67
     3e2:	09 f0       	breq	.+2      	; 0x3e6 <hpgl_char+0x14e>
     3e4:	5d c0       	rjmp	.+186    	; 0x4a0 <__LOCK_REGION_LENGTH__+0xa0>
     3e6:	8d e0       	ldi	r24, 0x0D	; 13
     3e8:	17 c0       	rjmp	.+46     	; 0x418 <__LOCK_REGION_LENGTH__+0x18>
     3ea:	10 35       	cpi	r17, 0x50	; 80
     3ec:	29 f0       	breq	.+10     	; 0x3f8 <hpgl_char+0x160>
     3ee:	12 35       	cpi	r17, 0x52	; 82
     3f0:	09 f0       	breq	.+2      	; 0x3f4 <hpgl_char+0x15c>
     3f2:	56 c0       	rjmp	.+172    	; 0x4a0 <__LOCK_REGION_LENGTH__+0xa0>
     3f4:	81 e1       	ldi	r24, 0x11	; 17
     3f6:	10 c0       	rjmp	.+32     	; 0x418 <__LOCK_REGION_LENGTH__+0x18>
     3f8:	8c e0       	ldi	r24, 0x0C	; 12
     3fa:	e8 cf       	rjmp	.-48     	; 0x3cc <hpgl_char+0x134>
     3fc:	80 e1       	ldi	r24, 0x10	; 16
     3fe:	0c c0       	rjmp	.+24     	; 0x418 <__LOCK_REGION_LENGTH__+0x18>
     400:	1e 34       	cpi	r17, 0x4E	; 78
     402:	81 f0       	breq	.+32     	; 0x424 <__LOCK_REGION_LENGTH__+0x24>
     404:	10 35       	cpi	r17, 0x50	; 80
     406:	39 f0       	breq	.+14     	; 0x416 <__LOCK_REGION_LENGTH__+0x16>
     408:	18 34       	cpi	r17, 0x48	; 72
     40a:	09 f0       	breq	.+2      	; 0x40e <__LOCK_REGION_LENGTH__+0xe>
     40c:	49 c0       	rjmp	.+146    	; 0x4a0 <__LOCK_REGION_LENGTH__+0xa0>
     40e:	10 92 13 02 	sts	0x0213, r1	; 0x800213 <pstate>
     412:	87 e0       	ldi	r24, 0x07	; 7
     414:	11 c0       	rjmp	.+34     	; 0x438 <__LOCK_REGION_LENGTH__+0x38>
     416:	8e e0       	ldi	r24, 0x0E	; 14
     418:	80 93 15 02 	sts	0x0215, r24	; 0x800215 <nstate>
     41c:	86 e1       	ldi	r24, 0x16	; 22
     41e:	80 93 13 02 	sts	0x0213, r24	; 0x800213 <pstate>
     422:	20 c0       	rjmp	.+64     	; 0x464 <__LOCK_REGION_LENGTH__+0x64>
     424:	10 92 13 02 	sts	0x0213, r1	; 0x800213 <pstate>
     428:	86 e0       	ldi	r24, 0x06	; 6
     42a:	06 c0       	rjmp	.+12     	; 0x438 <__LOCK_REGION_LENGTH__+0x38>
     42c:	12 34       	cpi	r17, 0x42	; 66
     42e:	c1 f5       	brne	.+112    	; 0x4a0 <__LOCK_REGION_LENGTH__+0xa0>
     430:	8f e0       	ldi	r24, 0x0F	; 15
     432:	80 93 13 02 	sts	0x0213, r24	; 0x800213 <pstate>
     436:	88 e0       	ldi	r24, 0x08	; 8
     438:	80 93 00 01 	sts	0x0100, r24	; 0x800100 <__DATA_REGION_ORIGIN__>
     43c:	93 c1       	rjmp	.+806    	; 0x764 <__LOCK_REGION_LENGTH__+0x364>
     43e:	19 34       	cpi	r17, 0x49	; 73
     440:	21 f0       	breq	.+8      	; 0x44a <__LOCK_REGION_LENGTH__+0x4a>
     442:	14 35       	cpi	r17, 0x54	; 84
     444:	69 f5       	brne	.+90     	; 0x4a0 <__LOCK_REGION_LENGTH__+0xa0>
     446:	82 e1       	ldi	r24, 0x12	; 18
     448:	c1 cf       	rjmp	.-126    	; 0x3cc <hpgl_char+0x134>
     44a:	86 e1       	ldi	r24, 0x16	; 22
     44c:	80 93 13 02 	sts	0x0213, r24	; 0x800213 <pstate>
     450:	83 e1       	ldi	r24, 0x13	; 19
     452:	06 c0       	rjmp	.+12     	; 0x460 <__LOCK_REGION_LENGTH__+0x60>
     454:	13 35       	cpi	r17, 0x53	; 83
     456:	21 f5       	brne	.+72     	; 0x4a0 <__LOCK_REGION_LENGTH__+0xa0>
     458:	86 e1       	ldi	r24, 0x16	; 22
     45a:	80 93 13 02 	sts	0x0213, r24	; 0x800213 <pstate>
     45e:	85 e1       	ldi	r24, 0x15	; 21
     460:	80 93 15 02 	sts	0x0215, r24	; 0x800215 <nstate>
     464:	10 92 e7 01 	sts	0x01E7, r1	; 0x8001e7 <numpad_idx.2164>
     468:	7d c1       	rjmp	.+762    	; 0x764 <__LOCK_REGION_LENGTH__+0x364>
     46a:	10 33       	cpi	r17, 0x30	; 48
     46c:	09 f0       	breq	.+2      	; 0x470 <__LOCK_REGION_LENGTH__+0x70>
     46e:	dc c0       	rjmp	.+440    	; 0x628 <__LOCK_REGION_LENGTH__+0x228>
     470:	f1 01       	movw	r30, r2
     472:	11 82       	std	Z+1, r1	; 0x01
     474:	10 82       	st	Z, r1
     476:	19 82       	std	Y+1, r1	; 0x01
     478:	18 82       	st	Y, r1
     47a:	10 92 75 03 	sts	0x0375, r1	; 0x800375 <user_loc+0x4>
     47e:	10 92 76 03 	sts	0x0376, r1	; 0x800376 <user_loc+0x5>
     482:	10 92 77 03 	sts	0x0377, r1	; 0x800377 <user_loc+0x6>
     486:	10 92 78 03 	sts	0x0378, r1	; 0x800378 <user_loc+0x7>
     48a:	10 92 71 03 	sts	0x0371, r1	; 0x800371 <user_loc>
     48e:	10 92 72 03 	sts	0x0372, r1	; 0x800372 <user_loc+0x1>
     492:	10 92 73 03 	sts	0x0373, r1	; 0x800373 <user_loc+0x2>
     496:	10 92 74 03 	sts	0x0374, r1	; 0x800374 <user_loc+0x3>
     49a:	84 e0       	ldi	r24, 0x04	; 4
     49c:	80 93 00 01 	sts	0x0100, r24	; 0x800100 <__DATA_REGION_ORIGIN__>
     4a0:	88 e1       	ldi	r24, 0x18	; 24
     4a2:	94 cf       	rjmp	.-216    	; 0x3cc <hpgl_char+0x134>
     4a4:	c0 e0       	ldi	r28, 0x00	; 0
     4a6:	f4 e0       	ldi	r31, 0x04	; 4
     4a8:	cf 9f       	mul	r28, r31
     4aa:	80 01       	movw	r16, r0
     4ac:	11 24       	eor	r1, r1
     4ae:	f8 01       	movw	r30, r16
     4b0:	e3 5b       	subi	r30, 0xB3	; 179
     4b2:	fc 4f       	sbci	r31, 0xFC	; 252
     4b4:	60 81       	ld	r22, Z
     4b6:	71 81       	ldd	r23, Z+1	; 0x01
     4b8:	82 81       	ldd	r24, Z+2	; 0x02
     4ba:	93 81       	ldd	r25, Z+3	; 0x03
     4bc:	0e 94 7a 0e 	call	0x1cf4	; 0x1cf4 <round>
     4c0:	03 5a       	subi	r16, 0xA3	; 163
     4c2:	1c 4f       	sbci	r17, 0xFC	; 252
     4c4:	0e 94 58 0d 	call	0x1ab0	; 0x1ab0 <__fixsfsi>
     4c8:	f8 01       	movw	r30, r16
     4ca:	60 83       	st	Z, r22
     4cc:	71 83       	std	Z+1, r23	; 0x01
     4ce:	82 83       	std	Z+2, r24	; 0x02
     4d0:	93 83       	std	Z+3, r25	; 0x03
     4d2:	cf 5f       	subi	r28, 0xFF	; 255
     4d4:	c4 30       	cpi	r28, 0x04	; 4
     4d6:	39 f7       	brne	.-50     	; 0x4a6 <__LOCK_REGION_LENGTH__+0xa6>
     4d8:	c0 93 e6 01 	sts	0x01E6, r28	; 0x8001e6 <i.2162>
     4dc:	41 c1       	rjmp	.+642    	; 0x760 <__LOCK_REGION_LENGTH__+0x360>
     4de:	c0 e0       	ldi	r28, 0x00	; 0
     4e0:	f4 e0       	ldi	r31, 0x04	; 4
     4e2:	cf 9f       	mul	r28, r31
     4e4:	80 01       	movw	r16, r0
     4e6:	11 24       	eor	r1, r1
     4e8:	f8 01       	movw	r30, r16
     4ea:	e3 5b       	subi	r30, 0xB3	; 179
     4ec:	fc 4f       	sbci	r31, 0xFC	; 252
     4ee:	60 81       	ld	r22, Z
     4f0:	71 81       	ldd	r23, Z+1	; 0x01
     4f2:	82 81       	ldd	r24, Z+2	; 0x02
     4f4:	93 81       	ldd	r25, Z+3	; 0x03
     4f6:	0e 94 7a 0e 	call	0x1cf4	; 0x1cf4 <round>
     4fa:	03 50       	subi	r16, 0x03	; 3
     4fc:	1d 4f       	sbci	r17, 0xFD	; 253
     4fe:	0e 94 58 0d 	call	0x1ab0	; 0x1ab0 <__fixsfsi>
     502:	f8 01       	movw	r30, r16
     504:	60 83       	st	Z, r22
     506:	71 83       	std	Z+1, r23	; 0x01
     508:	82 83       	std	Z+2, r24	; 0x02
     50a:	93 83       	std	Z+3, r25	; 0x03
     50c:	cf 5f       	subi	r28, 0xFF	; 255
     50e:	c4 30       	cpi	r28, 0x04	; 4
     510:	39 f7       	brne	.-50     	; 0x4e0 <__LOCK_REGION_LENGTH__+0xe0>
     512:	c0 93 e6 01 	sts	0x01E6, r28	; 0x8001e6 <i.2162>
     516:	7c d4       	rcall	.+2296   	; 0xe10 <translate_scale>
     518:	23 c1       	rjmp	.+582    	; 0x760 <__LOCK_REGION_LENGTH__+0x360>
     51a:	8a e0       	ldi	r24, 0x0A	; 10
     51c:	1f c1       	rjmp	.+574    	; 0x75c <__LOCK_REGION_LENGTH__+0x35c>
     51e:	8b e0       	ldi	r24, 0x0B	; 11
     520:	1d c1       	rjmp	.+570    	; 0x75c <__LOCK_REGION_LENGTH__+0x35c>
     522:	1d 30       	cpi	r17, 0x0D	; 13
     524:	09 f4       	brne	.+2      	; 0x528 <__LOCK_REGION_LENGTH__+0x128>
     526:	1e c1       	rjmp	.+572    	; 0x764 <__LOCK_REGION_LENGTH__+0x364>
     528:	08 f4       	brcc	.+2      	; 0x52c <__LOCK_REGION_LENGTH__+0x12c>
     52a:	86 c0       	rjmp	.+268    	; 0x638 <__LOCK_REGION_LENGTH__+0x238>
     52c:	1c 32       	cpi	r17, 0x2C	; 44
     52e:	29 f0       	breq	.+10     	; 0x53a <__LOCK_REGION_LENGTH__+0x13a>
     530:	1b 33       	cpi	r17, 0x3B	; 59
     532:	09 f0       	breq	.+2      	; 0x536 <__LOCK_REGION_LENGTH__+0x136>
     534:	8b c0       	rjmp	.+278    	; 0x64c <__LOCK_REGION_LENGTH__+0x24c>
     536:	8f ef       	ldi	r24, 0xFF	; 255
     538:	11 c1       	rjmp	.+546    	; 0x75c <__LOCK_REGION_LENGTH__+0x35c>
     53a:	e0 91 e8 01 	lds	r30, 0x01E8	; 0x8001e8 <si.2163>
     53e:	81 e0       	ldi	r24, 0x01	; 1
     540:	8e 0f       	add	r24, r30
     542:	80 93 e8 01 	sts	0x01E8, r24	; 0x8001e8 <si.2163>
     546:	8d e0       	ldi	r24, 0x0D	; 13
     548:	93 e0       	ldi	r25, 0x03	; 3
     54a:	f0 e0       	ldi	r31, 0x00	; 0
     54c:	e3 5f       	subi	r30, 0xF3	; 243
     54e:	fc 4f       	sbci	r31, 0xFC	; 252
     550:	10 82       	st	Z, r1
     552:	10 92 e5 01 	sts	0x01E5, r1	; 0x8001e5 <fx.2166+0x1>
     556:	10 92 e4 01 	sts	0x01E4, r1	; 0x8001e4 <fx.2166>
     55a:	24 ee       	ldi	r18, 0xE4	; 228
     55c:	31 e0       	ldi	r19, 0x01	; 1
     55e:	3f 93       	push	r19
     560:	2f 93       	push	r18
     562:	20 ed       	ldi	r18, 0xD0	; 208
     564:	30 e0       	ldi	r19, 0x00	; 0
     566:	3f 93       	push	r19
     568:	2f 93       	push	r18
     56a:	9f 93       	push	r25
     56c:	8f 93       	push	r24
     56e:	0e 94 93 0f 	call	0x1f26	; 0x1f26 <sscanf_P>
     572:	10 92 e8 01 	sts	0x01E8, r1	; 0x8001e8 <si.2163>
     576:	8a e0       	ldi	r24, 0x0A	; 10
     578:	80 93 13 02 	sts	0x0213, r24	; 0x800213 <pstate>
     57c:	0f 90       	pop	r0
     57e:	0f 90       	pop	r0
     580:	0f 90       	pop	r0
     582:	0f 90       	pop	r0
     584:	0f 90       	pop	r0
     586:	0f 90       	pop	r0
     588:	ed c0       	rjmp	.+474    	; 0x764 <__LOCK_REGION_LENGTH__+0x364>
     58a:	1d 30       	cpi	r17, 0x0D	; 13
     58c:	09 f4       	brne	.+2      	; 0x590 <__LOCK_REGION_LENGTH__+0x190>
     58e:	ea c0       	rjmp	.+468    	; 0x764 <__LOCK_REGION_LENGTH__+0x364>
     590:	28 f4       	brcc	.+10     	; 0x59c <__LOCK_REGION_LENGTH__+0x19c>
     592:	87 ef       	ldi	r24, 0xF7	; 247
     594:	81 0f       	add	r24, r17
     596:	82 30       	cpi	r24, 0x02	; 2
     598:	d0 f5       	brcc	.+116    	; 0x60e <__LOCK_REGION_LENGTH__+0x20e>
     59a:	43 c0       	rjmp	.+134    	; 0x622 <__LOCK_REGION_LENGTH__+0x222>
     59c:	1c 32       	cpi	r17, 0x2C	; 44
     59e:	29 f0       	breq	.+10     	; 0x5aa <__LOCK_REGION_LENGTH__+0x1aa>
     5a0:	1b 33       	cpi	r17, 0x3B	; 59
     5a2:	19 f0       	breq	.+6      	; 0x5aa <__LOCK_REGION_LENGTH__+0x1aa>
     5a4:	10 32       	cpi	r17, 0x20	; 32
     5a6:	99 f5       	brne	.+102    	; 0x60e <__LOCK_REGION_LENGTH__+0x20e>
     5a8:	dd c0       	rjmp	.+442    	; 0x764 <__LOCK_REGION_LENGTH__+0x364>
     5aa:	e0 91 e8 01 	lds	r30, 0x01E8	; 0x8001e8 <si.2163>
     5ae:	81 e0       	ldi	r24, 0x01	; 1
     5b0:	8e 0f       	add	r24, r30
     5b2:	80 93 e8 01 	sts	0x01E8, r24	; 0x8001e8 <si.2163>
     5b6:	8d e0       	ldi	r24, 0x0D	; 13
     5b8:	93 e0       	ldi	r25, 0x03	; 3
     5ba:	f0 e0       	ldi	r31, 0x00	; 0
     5bc:	e3 5f       	subi	r30, 0xF3	; 243
     5be:	fc 4f       	sbci	r31, 0xFC	; 252
     5c0:	10 82       	st	Z, r1
     5c2:	10 92 e3 01 	sts	0x01E3, r1	; 0x8001e3 <fy.2167+0x1>
     5c6:	10 92 e2 01 	sts	0x01E2, r1	; 0x8001e2 <fy.2167>
     5ca:	22 ee       	ldi	r18, 0xE2	; 226
     5cc:	31 e0       	ldi	r19, 0x01	; 1
     5ce:	3f 93       	push	r19
     5d0:	2f 93       	push	r18
     5d2:	2d ec       	ldi	r18, 0xCD	; 205
     5d4:	30 e0       	ldi	r19, 0x00	; 0
     5d6:	3f 93       	push	r19
     5d8:	2f 93       	push	r18
     5da:	9f 93       	push	r25
     5dc:	8f 93       	push	r24
     5de:	0e 94 93 0f 	call	0x1f26	; 0x1f26 <sscanf_P>
     5e2:	10 92 e8 01 	sts	0x01E8, r1	; 0x8001e8 <si.2163>
     5e6:	80 91 e2 01 	lds	r24, 0x01E2	; 0x8001e2 <fy.2167>
     5ea:	90 91 e3 01 	lds	r25, 0x01E3	; 0x8001e3 <fy.2167+0x1>
     5ee:	f1 01       	movw	r30, r2
     5f0:	91 83       	std	Z+1, r25	; 0x01
     5f2:	80 83       	st	Z, r24
     5f4:	80 91 e4 01 	lds	r24, 0x01E4	; 0x8001e4 <fx.2166>
     5f8:	90 91 e5 01 	lds	r25, 0x01E5	; 0x8001e5 <fx.2166+0x1>
     5fc:	99 83       	std	Y+1, r25	; 0x01
     5fe:	88 83       	st	Y, r24
     600:	0f 90       	pop	r0
     602:	0f 90       	pop	r0
     604:	0f 90       	pop	r0
     606:	0f 90       	pop	r0
     608:	0f 90       	pop	r0
     60a:	0f 90       	pop	r0
     60c:	0a c0       	rjmp	.+20     	; 0x622 <__LOCK_REGION_LENGTH__+0x222>
     60e:	e0 91 e8 01 	lds	r30, 0x01E8	; 0x8001e8 <si.2163>
     612:	81 e0       	ldi	r24, 0x01	; 1
     614:	8e 0f       	add	r24, r30
     616:	80 93 e8 01 	sts	0x01E8, r24	; 0x8001e8 <si.2163>
     61a:	f0 e0       	ldi	r31, 0x00	; 0
     61c:	e3 5f       	subi	r30, 0xF3	; 243
     61e:	fc 4f       	sbci	r31, 0xFC	; 252
     620:	10 83       	st	Z, r17
     622:	1c 32       	cpi	r17, 0x2C	; 44
     624:	09 f4       	brne	.+2      	; 0x628 <__LOCK_REGION_LENGTH__+0x228>
     626:	d1 ce       	rjmp	.-606    	; 0x3ca <hpgl_char+0x132>
     628:	1b 33       	cpi	r17, 0x3B	; 59
     62a:	09 f4       	brne	.+2      	; 0x62e <__LOCK_REGION_LENGTH__+0x22e>
     62c:	99 c0       	rjmp	.+306    	; 0x760 <__LOCK_REGION_LENGTH__+0x360>
     62e:	9a c0       	rjmp	.+308    	; 0x764 <__LOCK_REGION_LENGTH__+0x364>
     630:	1d 30       	cpi	r17, 0x0D	; 13
     632:	09 f4       	brne	.+2      	; 0x636 <__LOCK_REGION_LENGTH__+0x236>
     634:	97 c0       	rjmp	.+302    	; 0x764 <__LOCK_REGION_LENGTH__+0x364>
     636:	30 f4       	brcc	.+12     	; 0x644 <__LOCK_REGION_LENGTH__+0x244>
     638:	87 ef       	ldi	r24, 0xF7	; 247
     63a:	81 0f       	add	r24, r17
     63c:	82 30       	cpi	r24, 0x02	; 2
     63e:	08 f0       	brcs	.+2      	; 0x642 <__LOCK_REGION_LENGTH__+0x242>
     640:	4a c0       	rjmp	.+148    	; 0x6d6 <__LOCK_REGION_LENGTH__+0x2d6>
     642:	90 c0       	rjmp	.+288    	; 0x764 <__LOCK_REGION_LENGTH__+0x364>
     644:	1c 32       	cpi	r17, 0x2C	; 44
     646:	31 f0       	breq	.+12     	; 0x654 <__LOCK_REGION_LENGTH__+0x254>
     648:	1b 33       	cpi	r17, 0x3B	; 59
     64a:	21 f0       	breq	.+8      	; 0x654 <__LOCK_REGION_LENGTH__+0x254>
     64c:	10 32       	cpi	r17, 0x20	; 32
     64e:	09 f0       	breq	.+2      	; 0x652 <__LOCK_REGION_LENGTH__+0x252>
     650:	42 c0       	rjmp	.+132    	; 0x6d6 <__LOCK_REGION_LENGTH__+0x2d6>
     652:	88 c0       	rjmp	.+272    	; 0x764 <__LOCK_REGION_LENGTH__+0x364>
     654:	e0 91 e8 01 	lds	r30, 0x01E8	; 0x8001e8 <si.2163>
     658:	81 e0       	ldi	r24, 0x01	; 1
     65a:	8e 0f       	add	r24, r30
     65c:	80 93 e8 01 	sts	0x01E8, r24	; 0x8001e8 <si.2163>
     660:	f0 e0       	ldi	r31, 0x00	; 0
     662:	e3 5f       	subi	r30, 0xF3	; 243
     664:	fc 4f       	sbci	r31, 0xFC	; 252
     666:	10 82       	st	Z, r1
     668:	bf 92       	push	r11
     66a:	af 92       	push	r10
     66c:	9f 92       	push	r9
     66e:	8f 92       	push	r8
     670:	7f 92       	push	r7
     672:	6f 92       	push	r6
     674:	0e 94 93 0f 	call	0x1f26	; 0x1f26 <sscanf_P>
     678:	10 92 e8 01 	sts	0x01E8, r1	; 0x8001e8 <si.2163>
     67c:	40 90 e7 01 	lds	r4, 0x01E7	; 0x8001e7 <numpad_idx.2164>
     680:	f4 e0       	ldi	r31, 0x04	; 4
     682:	4f 9e       	mul	r4, r31
     684:	c0 01       	movw	r24, r0
     686:	11 24       	eor	r1, r1
     688:	9c 01       	movw	r18, r24
     68a:	23 5b       	subi	r18, 0xB3	; 179
     68c:	3c 4f       	sbci	r19, 0xFC	; 252
     68e:	69 01       	movw	r12, r18
     690:	60 91 e4 01 	lds	r22, 0x01E4	; 0x8001e4 <fx.2166>
     694:	70 91 e5 01 	lds	r23, 0x01E5	; 0x8001e5 <fx.2166+0x1>
     698:	07 2e       	mov	r0, r23
     69a:	00 0c       	add	r0, r0
     69c:	88 0b       	sbc	r24, r24
     69e:	99 0b       	sbc	r25, r25
     6a0:	0e 94 8b 0d 	call	0x1b16	; 0x1b16 <__floatsisf>
     6a4:	f6 01       	movw	r30, r12
     6a6:	60 83       	st	Z, r22
     6a8:	71 83       	std	Z+1, r23	; 0x01
     6aa:	82 83       	std	Z+2, r24	; 0x02
     6ac:	93 83       	std	Z+3, r25	; 0x03
     6ae:	81 e0       	ldi	r24, 0x01	; 1
     6b0:	84 0d       	add	r24, r4
     6b2:	80 93 e7 01 	sts	0x01E7, r24	; 0x8001e7 <numpad_idx.2164>
     6b6:	0f 90       	pop	r0
     6b8:	0f 90       	pop	r0
     6ba:	0f 90       	pop	r0
     6bc:	0f 90       	pop	r0
     6be:	0f 90       	pop	r0
     6c0:	0f 90       	pop	r0
     6c2:	84 30       	cpi	r24, 0x04	; 4
     6c4:	19 f0       	breq	.+6      	; 0x6cc <__LOCK_REGION_LENGTH__+0x2cc>
     6c6:	1b 33       	cpi	r17, 0x3B	; 59
     6c8:	09 f0       	breq	.+2      	; 0x6cc <__LOCK_REGION_LENGTH__+0x2cc>
     6ca:	4c c0       	rjmp	.+152    	; 0x764 <__LOCK_REGION_LENGTH__+0x364>
     6cc:	80 91 15 02 	lds	r24, 0x0215	; 0x800215 <nstate>
     6d0:	80 93 13 02 	sts	0x0213, r24	; 0x800213 <pstate>
     6d4:	0b ce       	rjmp	.-1002   	; 0x2ec <hpgl_char+0x54>
     6d6:	e0 91 e8 01 	lds	r30, 0x01E8	; 0x8001e8 <si.2163>
     6da:	81 e0       	ldi	r24, 0x01	; 1
     6dc:	8e 0f       	add	r24, r30
     6de:	80 93 e8 01 	sts	0x01E8, r24	; 0x8001e8 <si.2163>
     6e2:	f0 e0       	ldi	r31, 0x00	; 0
     6e4:	e3 5f       	subi	r30, 0xF3	; 243
     6e6:	fc 4f       	sbci	r31, 0xFC	; 252
     6e8:	2f c0       	rjmp	.+94     	; 0x748 <__LOCK_REGION_LENGTH__+0x348>
     6ea:	85 e0       	ldi	r24, 0x05	; 5
     6ec:	80 93 00 01 	sts	0x0100, r24	; 0x800100 <__DATA_REGION_ORIGIN__>
     6f0:	80 91 e7 01 	lds	r24, 0x01E7	; 0x8001e7 <numpad_idx.2164>
     6f4:	83 30       	cpi	r24, 0x03	; 3
     6f6:	61 f4       	brne	.+24     	; 0x710 <__LOCK_REGION_LENGTH__+0x310>
     6f8:	80 e0       	ldi	r24, 0x00	; 0
     6fa:	90 e0       	ldi	r25, 0x00	; 0
     6fc:	a0 ea       	ldi	r26, 0xA0	; 160
     6fe:	b0 e4       	ldi	r27, 0x40	; 64
     700:	80 93 59 03 	sts	0x0359, r24	; 0x800359 <numpad+0xc>
     704:	90 93 5a 03 	sts	0x035A, r25	; 0x80035a <numpad+0xd>
     708:	a0 93 5b 03 	sts	0x035B, r26	; 0x80035b <numpad+0xe>
     70c:	b0 93 5c 03 	sts	0x035C, r27	; 0x80035c <numpad+0xf>
     710:	8f ef       	ldi	r24, 0xFF	; 255
     712:	9f ef       	ldi	r25, 0xFF	; 255
     714:	f1 01       	movw	r30, r2
     716:	91 83       	std	Z+1, r25	; 0x01
     718:	80 83       	st	Z, r24
     71a:	99 83       	std	Y+1, r25	; 0x01
     71c:	88 83       	st	Y, r24
     71e:	20 c0       	rjmp	.+64     	; 0x760 <__LOCK_REGION_LENGTH__+0x360>
     720:	89 e0       	ldi	r24, 0x09	; 9
     722:	80 93 00 01 	sts	0x0100, r24	; 0x800100 <__DATA_REGION_ORIGIN__>
     726:	80 91 14 02 	lds	r24, 0x0214	; 0x800214 <etxchar>
     72a:	18 13       	cpse	r17, r24
     72c:	05 c0       	rjmp	.+10     	; 0x738 <__LOCK_REGION_LENGTH__+0x338>
     72e:	10 92 13 02 	sts	0x0213, r1	; 0x800213 <pstate>
     732:	f7 01       	movw	r30, r14
     734:	10 82       	st	Z, r1
     736:	16 c0       	rjmp	.+44     	; 0x764 <__LOCK_REGION_LENGTH__+0x364>
     738:	8f ef       	ldi	r24, 0xFF	; 255
     73a:	9f ef       	ldi	r25, 0xFF	; 255
     73c:	f1 01       	movw	r30, r2
     73e:	91 83       	std	Z+1, r25	; 0x01
     740:	80 83       	st	Z, r24
     742:	99 83       	std	Y+1, r25	; 0x01
     744:	88 83       	st	Y, r24
     746:	f7 01       	movw	r30, r14
     748:	10 83       	st	Z, r17
     74a:	0c c0       	rjmp	.+24     	; 0x764 <__LOCK_REGION_LENGTH__+0x364>
     74c:	10 93 14 02 	sts	0x0214, r17	; 0x800214 <etxchar>
     750:	07 c0       	rjmp	.+14     	; 0x760 <__LOCK_REGION_LENGTH__+0x360>
     752:	8c e0       	ldi	r24, 0x0C	; 12
     754:	03 c0       	rjmp	.+6      	; 0x75c <__LOCK_REGION_LENGTH__+0x35c>
     756:	8e e0       	ldi	r24, 0x0E	; 14
     758:	01 c0       	rjmp	.+2      	; 0x75c <__LOCK_REGION_LENGTH__+0x35c>
     75a:	8d e0       	ldi	r24, 0x0D	; 13
     75c:	80 93 00 01 	sts	0x0100, r24	; 0x800100 <__DATA_REGION_ORIGIN__>
     760:	10 92 13 02 	sts	0x0213, r1	; 0x800213 <pstate>
     764:	80 91 00 01 	lds	r24, 0x0100	; 0x800100 <__DATA_REGION_ORIGIN__>
     768:	df 91       	pop	r29
     76a:	cf 91       	pop	r28
     76c:	1f 91       	pop	r17
     76e:	0f 91       	pop	r16
     770:	ff 90       	pop	r15
     772:	ef 90       	pop	r14
     774:	df 90       	pop	r13
     776:	cf 90       	pop	r12
     778:	bf 90       	pop	r11
     77a:	af 90       	pop	r10
     77c:	9f 90       	pop	r9
     77e:	8f 90       	pop	r8
     780:	7f 90       	pop	r7
     782:	6f 90       	pop	r6
     784:	4f 90       	pop	r4
     786:	3f 90       	pop	r3
     788:	2f 90       	pop	r2
     78a:	08 95       	ret

0000078c <keypad_write_cols>:
     78c:	20 e1       	ldi	r18, 0x10	; 16
     78e:	30 e0       	ldi	r19, 0x00	; 0
     790:	97 ff       	sbrs	r25, 7
     792:	02 c0       	rjmp	.+4      	; 0x798 <keypad_write_cols+0xc>
     794:	96 9a       	sbi	0x12, 6	; 18
     796:	01 c0       	rjmp	.+2      	; 0x79a <keypad_write_cols+0xe>
     798:	96 98       	cbi	0x12, 6	; 18
     79a:	97 9a       	sbi	0x12, 7	; 18
     79c:	88 0f       	add	r24, r24
     79e:	99 1f       	adc	r25, r25
     7a0:	97 98       	cbi	0x12, 7	; 18
     7a2:	21 50       	subi	r18, 0x01	; 1
     7a4:	31 09       	sbc	r19, r1
     7a6:	a1 f7       	brne	.-24     	; 0x790 <keypad_write_cols+0x4>
     7a8:	08 95       	ret

000007aa <keypad_stop_pressed>:
     7aa:	80 b3       	in	r24, 0x10	; 16
     7ac:	80 95       	com	r24
     7ae:	81 70       	andi	r24, 0x01	; 1
     7b0:	08 95       	ret

000007b2 <keypad_scan>:
     7b2:	ef 92       	push	r14
     7b4:	ff 92       	push	r15
     7b6:	0f 93       	push	r16
     7b8:	1f 93       	push	r17
     7ba:	cf 93       	push	r28
     7bc:	df 93       	push	r29
     7be:	95 9a       	sbi	0x12, 5	; 18
     7c0:	8e ef       	ldi	r24, 0xFE	; 254
     7c2:	9f ef       	ldi	r25, 0xFF	; 255
     7c4:	e3 df       	rcall	.-58     	; 0x78c <keypad_write_cols>
     7c6:	96 9a       	sbi	0x12, 6	; 18
     7c8:	c8 e2       	ldi	r28, 0x28	; 40
     7ca:	d2 e0       	ldi	r29, 0x02	; 2
     7cc:	fe 01       	movw	r30, r28
     7ce:	80 91 63 00 	lds	r24, 0x0063	; 0x800063 <__TEXT_REGION_LENGTH__+0x7e0063>
     7d2:	80 95       	com	r24
     7d4:	8f 71       	andi	r24, 0x1F	; 31
     7d6:	81 93       	st	Z+, r24
     7d8:	97 9a       	sbi	0x12, 7	; 18
     7da:	97 98       	cbi	0x12, 7	; 18
     7dc:	82 e0       	ldi	r24, 0x02	; 2
     7de:	e8 33       	cpi	r30, 0x38	; 56
     7e0:	f8 07       	cpc	r31, r24
     7e2:	a9 f7       	brne	.-22     	; 0x7ce <keypad_scan+0x1c>
     7e4:	a6 e1       	ldi	r26, 0x16	; 22
     7e6:	b2 e0       	ldi	r27, 0x02	; 2
     7e8:	8f ef       	ldi	r24, 0xFF	; 255
     7ea:	9f ef       	ldi	r25, 0xFF	; 255
     7ec:	40 e0       	ldi	r20, 0x00	; 0
     7ee:	50 e0       	ldi	r21, 0x00	; 0
     7f0:	ee 24       	eor	r14, r14
     7f2:	e3 94       	inc	r14
     7f4:	f1 2c       	mov	r15, r1
     7f6:	39 91       	ld	r19, Y+
     7f8:	2c 91       	ld	r18, X
     7fa:	23 27       	eor	r18, r19
     7fc:	99 f0       	breq	.+38     	; 0x824 <keypad_scan+0x72>
     7fe:	fa 01       	movw	r30, r20
     800:	60 e0       	ldi	r22, 0x00	; 0
     802:	70 e0       	ldi	r23, 0x00	; 0
     804:	23 23       	and	r18, r19
     806:	87 01       	movw	r16, r14
     808:	06 2e       	mov	r0, r22
     80a:	01 c0       	rjmp	.+2      	; 0x80e <keypad_scan+0x5c>
     80c:	00 0f       	add	r16, r16
     80e:	0a 94       	dec	r0
     810:	ea f7       	brpl	.-6      	; 0x80c <keypad_scan+0x5a>
     812:	02 23       	and	r16, r18
     814:	09 f0       	breq	.+2      	; 0x818 <keypad_scan+0x66>
     816:	cf 01       	movw	r24, r30
     818:	6f 5f       	subi	r22, 0xFF	; 255
     81a:	7f 4f       	sbci	r23, 0xFF	; 255
     81c:	70 96       	adiw	r30, 0x10	; 16
     81e:	65 30       	cpi	r22, 0x05	; 5
     820:	71 05       	cpc	r23, r1
     822:	89 f7       	brne	.-30     	; 0x806 <keypad_scan+0x54>
     824:	3d 93       	st	X+, r19
     826:	4f 5f       	subi	r20, 0xFF	; 255
     828:	5f 4f       	sbci	r21, 0xFF	; 255
     82a:	40 31       	cpi	r20, 0x10	; 16
     82c:	51 05       	cpc	r21, r1
     82e:	19 f7       	brne	.-58     	; 0x7f6 <keypad_scan+0x44>
     830:	df 91       	pop	r29
     832:	cf 91       	pop	r28
     834:	1f 91       	pop	r17
     836:	0f 91       	pop	r16
     838:	ff 90       	pop	r15
     83a:	ef 90       	pop	r14
     83c:	08 95       	ret

0000083e <keypadSet_Speed_state>:
     83e:	81 e0       	ldi	r24, 0x01	; 1
     840:	90 e0       	ldi	r25, 0x00	; 0
     842:	90 93 ea 01 	sts	0x01EA, r25	; 0x8001ea <k_state+0x1>
     846:	80 93 e9 01 	sts	0x01E9, r24	; 0x8001e9 <k_state>
     84a:	08 95       	ret

0000084c <keypadSet_Pressure_state>:
     84c:	10 92 ea 01 	sts	0x01EA, r1	; 0x8001ea <k_state+0x1>
     850:	10 92 e9 01 	sts	0x01E9, r1	; 0x8001e9 <k_state>
     854:	08 95       	ret

00000856 <_beep>:
     856:	8e 31       	cpi	r24, 0x1E	; 30
     858:	91 05       	cpc	r25, r1
     85a:	d9 f0       	breq	.+54     	; 0x892 <_beep+0x3c>
     85c:	24 f4       	brge	.+8      	; 0x866 <_beep+0x10>
     85e:	8e 30       	cpi	r24, 0x0E	; 14
     860:	91 05       	cpc	r25, r1
     862:	39 f4       	brne	.+14     	; 0x872 <_beep+0x1c>
     864:	08 95       	ret
     866:	8e 33       	cpi	r24, 0x3E	; 62
     868:	91 05       	cpc	r25, r1
     86a:	99 f0       	breq	.+38     	; 0x892 <_beep+0x3c>
     86c:	8e 34       	cpi	r24, 0x4E	; 78
     86e:	91 05       	cpc	r25, r1
     870:	81 f0       	breq	.+32     	; 0x892 <_beep+0x3c>
     872:	20 91 02 01 	lds	r18, 0x0102	; 0x800102 <sound_mode>
     876:	21 30       	cpi	r18, 0x01	; 1
     878:	61 f4       	brne	.+24     	; 0x892 <_beep+0x3c>
     87a:	97 fd       	sbrc	r25, 7
     87c:	0a c0       	rjmp	.+20     	; 0x892 <_beep+0x3c>
     87e:	80 e1       	ldi	r24, 0x10	; 16
     880:	9e e0       	ldi	r25, 0x0E	; 14
     882:	0e 94 46 0c 	call	0x188c	; 0x188c <beeper_on>
     886:	82 e3       	ldi	r24, 0x32	; 50
     888:	90 e0       	ldi	r25, 0x00	; 0
     88a:	0e 94 74 0c 	call	0x18e8	; 0x18e8 <msleep>
     88e:	0c 94 64 0c 	jmp	0x18c8	; 0x18c8 <beeper_off>
     892:	08 95       	ret

00000894 <keypad_poll>:
     894:	cf 93       	push	r28
     896:	df 93       	push	r29
     898:	8c df       	rcall	.-232    	; 0x7b2 <keypad_scan>
     89a:	ec 01       	movw	r28, r24
     89c:	81 32       	cpi	r24, 0x21	; 33
     89e:	91 05       	cpc	r25, r1
     8a0:	09 f4       	brne	.+2      	; 0x8a4 <keypad_poll+0x10>
     8a2:	b7 c0       	rjmp	.+366    	; 0xa12 <keypad_poll+0x17e>
     8a4:	0c f0       	brlt	.+2      	; 0x8a8 <keypad_poll+0x14>
     8a6:	3c c0       	rjmp	.+120    	; 0x920 <keypad_poll+0x8c>
     8a8:	81 31       	cpi	r24, 0x11	; 17
     8aa:	91 05       	cpc	r25, r1
     8ac:	09 f4       	brne	.+2      	; 0x8b0 <keypad_poll+0x1c>
     8ae:	76 c0       	rjmp	.+236    	; 0x99c <keypad_poll+0x108>
     8b0:	b4 f4       	brge	.+44     	; 0x8de <keypad_poll+0x4a>
     8b2:	81 30       	cpi	r24, 0x01	; 1
     8b4:	91 05       	cpc	r25, r1
     8b6:	09 f4       	brne	.+2      	; 0x8ba <keypad_poll+0x26>
     8b8:	b5 c0       	rjmp	.+362    	; 0xa24 <keypad_poll+0x190>
     8ba:	4c f4       	brge	.+18     	; 0x8ce <keypad_poll+0x3a>
     8bc:	89 2b       	or	r24, r25
     8be:	09 f0       	breq	.+2      	; 0x8c2 <keypad_poll+0x2e>
     8c0:	de c0       	rjmp	.+444    	; 0xa7e <keypad_poll+0x1ea>
     8c2:	10 92 ea 01 	sts	0x01EA, r1	; 0x8001ea <k_state+0x1>
     8c6:	10 92 e9 01 	sts	0x01E9, r1	; 0x8001e9 <k_state>
     8ca:	fd d1       	rcall	.+1018   	; 0xcc6 <lcd_report_pressure1>
     8cc:	d8 c0       	rjmp	.+432    	; 0xa7e <keypad_poll+0x1ea>
     8ce:	8d 30       	cpi	r24, 0x0D	; 13
     8d0:	91 05       	cpc	r25, r1
     8d2:	09 f4       	brne	.+2      	; 0x8d6 <keypad_poll+0x42>
     8d4:	8a c0       	rjmp	.+276    	; 0x9ea <keypad_poll+0x156>
     8d6:	0e 97       	sbiw	r24, 0x0e	; 14
     8d8:	09 f4       	brne	.+2      	; 0x8dc <keypad_poll+0x48>
     8da:	8e c0       	rjmp	.+284    	; 0x9f8 <keypad_poll+0x164>
     8dc:	d0 c0       	rjmp	.+416    	; 0xa7e <keypad_poll+0x1ea>
     8de:	8d 31       	cpi	r24, 0x1D	; 29
     8e0:	91 05       	cpc	r25, r1
     8e2:	09 f4       	brne	.+2      	; 0x8e6 <keypad_poll+0x52>
     8e4:	79 c0       	rjmp	.+242    	; 0x9d8 <keypad_poll+0x144>
     8e6:	64 f4       	brge	.+24     	; 0x900 <keypad_poll+0x6c>
     8e8:	4b 97       	sbiw	r24, 0x1b	; 27
     8ea:	09 f0       	breq	.+2      	; 0x8ee <keypad_poll+0x5a>
     8ec:	c8 c0       	rjmp	.+400    	; 0xa7e <keypad_poll+0x1ea>
     8ee:	83 e0       	ldi	r24, 0x03	; 3
     8f0:	80 93 01 01 	sts	0x0101, r24	; 0x800101 <Lang>
     8f4:	8e d1       	rcall	.+796    	; 0xc12 <lcd_clear>
     8f6:	63 e0       	ldi	r22, 0x03	; 3
     8f8:	71 e0       	ldi	r23, 0x01	; 1
     8fa:	84 e4       	ldi	r24, 0x44	; 68
     8fc:	91 e0       	ldi	r25, 0x01	; 1
     8fe:	5b c0       	rjmp	.+182    	; 0x9b6 <keypad_poll+0x122>
     900:	8e 31       	cpi	r24, 0x1E	; 30
     902:	91 05       	cpc	r25, r1
     904:	09 f4       	brne	.+2      	; 0x908 <keypad_poll+0x74>
     906:	78 c0       	rjmp	.+240    	; 0x9f8 <keypad_poll+0x164>
     908:	80 97       	sbiw	r24, 0x20	; 32
     90a:	09 f0       	breq	.+2      	; 0x90e <keypad_poll+0x7a>
     90c:	b8 c0       	rjmp	.+368    	; 0xa7e <keypad_poll+0x1ea>
     90e:	81 d1       	rcall	.+770    	; 0xc12 <lcd_clear>
     910:	63 e0       	ldi	r22, 0x03	; 3
     912:	71 e0       	ldi	r23, 0x01	; 1
     914:	82 e9       	ldi	r24, 0x92	; 146
     916:	91 e0       	ldi	r25, 0x01	; 1
     918:	0e 94 40 0f 	call	0x1e80	; 0x1e80 <fputs>
     91c:	8a d5       	rcall	.+2836   	; 0x1432 <pen_down>
     91e:	af c0       	rjmp	.+350    	; 0xa7e <keypad_poll+0x1ea>
     920:	8e 33       	cpi	r24, 0x3E	; 62
     922:	91 05       	cpc	r25, r1
     924:	09 f4       	brne	.+2      	; 0x928 <keypad_poll+0x94>
     926:	68 c0       	rjmp	.+208    	; 0x9f8 <keypad_poll+0x164>
     928:	e4 f4       	brge	.+56     	; 0x962 <keypad_poll+0xce>
     92a:	87 32       	cpi	r24, 0x27	; 39
     92c:	91 05       	cpc	r25, r1
     92e:	d9 f1       	breq	.+118    	; 0x9a6 <keypad_poll+0x112>
     930:	64 f4       	brge	.+24     	; 0x94a <keypad_poll+0xb6>
     932:	86 97       	sbiw	r24, 0x26	; 38
     934:	09 f0       	breq	.+2      	; 0x938 <keypad_poll+0xa4>
     936:	a3 c0       	rjmp	.+326    	; 0xa7e <keypad_poll+0x1ea>
     938:	82 e0       	ldi	r24, 0x02	; 2
     93a:	80 93 01 01 	sts	0x0101, r24	; 0x800101 <Lang>
     93e:	69 d1       	rcall	.+722    	; 0xc12 <lcd_clear>
     940:	63 e0       	ldi	r22, 0x03	; 3
     942:	71 e0       	ldi	r23, 0x01	; 1
     944:	86 e2       	ldi	r24, 0x26	; 38
     946:	91 e0       	ldi	r25, 0x01	; 1
     948:	36 c0       	rjmp	.+108    	; 0x9b6 <keypad_poll+0x122>
     94a:	8d 32       	cpi	r24, 0x2D	; 45
     94c:	91 05       	cpc	r25, r1
     94e:	f1 f0       	breq	.+60     	; 0x98c <keypad_poll+0xf8>
     950:	8e 32       	cpi	r24, 0x2E	; 46
     952:	91 05       	cpc	r25, r1
     954:	09 f0       	breq	.+2      	; 0x958 <keypad_poll+0xc4>
     956:	93 c0       	rjmp	.+294    	; 0xa7e <keypad_poll+0x1ea>
     958:	90 93 ea 01 	sts	0x01EA, r25	; 0x8001ea <k_state+0x1>
     95c:	80 93 e9 01 	sts	0x01E9, r24	; 0x8001e9 <k_state>
     960:	8e c0       	rjmp	.+284    	; 0xa7e <keypad_poll+0x1ea>
     962:	8c 34       	cpi	r24, 0x4C	; 76
     964:	91 05       	cpc	r25, r1
     966:	51 f1       	breq	.+84     	; 0x9bc <keypad_poll+0x128>
     968:	4c f4       	brge	.+18     	; 0x97c <keypad_poll+0xe8>
     96a:	82 34       	cpi	r24, 0x42	; 66
     96c:	91 05       	cpc	r25, r1
     96e:	09 f4       	brne	.+2      	; 0x972 <keypad_poll+0xde>
     970:	5f c0       	rjmp	.+190    	; 0xa30 <keypad_poll+0x19c>
     972:	83 34       	cpi	r24, 0x43	; 67
     974:	91 05       	cpc	r25, r1
     976:	09 f4       	brne	.+2      	; 0x97a <keypad_poll+0xe6>
     978:	6e c0       	rjmp	.+220    	; 0xa56 <keypad_poll+0x1c2>
     97a:	81 c0       	rjmp	.+258    	; 0xa7e <keypad_poll+0x1ea>
     97c:	8d 34       	cpi	r24, 0x4D	; 77
     97e:	91 05       	cpc	r25, r1
     980:	21 f1       	breq	.+72     	; 0x9ca <keypad_poll+0x136>
     982:	8e 34       	cpi	r24, 0x4E	; 78
     984:	91 05       	cpc	r25, r1
     986:	09 f4       	brne	.+2      	; 0x98a <keypad_poll+0xf6>
     988:	37 c0       	rjmp	.+110    	; 0x9f8 <keypad_poll+0x164>
     98a:	79 c0       	rjmp	.+242    	; 0xa7e <keypad_poll+0x1ea>
     98c:	81 e0       	ldi	r24, 0x01	; 1
     98e:	90 91 02 01 	lds	r25, 0x0102	; 0x800102 <sound_mode>
     992:	91 11       	cpse	r25, r1
     994:	80 e0       	ldi	r24, 0x00	; 0
     996:	80 93 02 01 	sts	0x0102, r24	; 0x800102 <sound_mode>
     99a:	71 c0       	rjmp	.+226    	; 0xa7e <keypad_poll+0x1ea>
     99c:	8a e1       	ldi	r24, 0x1A	; 26
     99e:	91 e0       	ldi	r25, 0x01	; 1
     9a0:	0e 94 e3 0c 	call	0x19c6	; 0x19c6 <usb_puts>
     9a4:	6c c0       	rjmp	.+216    	; 0xa7e <keypad_poll+0x1ea>
     9a6:	81 e0       	ldi	r24, 0x01	; 1
     9a8:	80 93 01 01 	sts	0x0101, r24	; 0x800101 <Lang>
     9ac:	32 d1       	rcall	.+612    	; 0xc12 <lcd_clear>
     9ae:	63 e0       	ldi	r22, 0x03	; 3
     9b0:	71 e0       	ldi	r23, 0x01	; 1
     9b2:	86 e3       	ldi	r24, 0x36	; 54
     9b4:	91 e0       	ldi	r25, 0x01	; 1
     9b6:	0e 94 40 0f 	call	0x1e80	; 0x1e80 <fputs>
     9ba:	61 c0       	rjmp	.+194    	; 0xa7e <keypad_poll+0x1ea>
     9bc:	e9 d4       	rcall	.+2514   	; 0x1390 <stepper_load_paper>
     9be:	29 d1       	rcall	.+594    	; 0xc12 <lcd_clear>
     9c0:	63 e0       	ldi	r22, 0x03	; 3
     9c2:	71 e0       	ldi	r23, 0x01	; 1
     9c4:	82 e5       	ldi	r24, 0x52	; 82
     9c6:	91 e0       	ldi	r25, 0x01	; 1
     9c8:	f6 cf       	rjmp	.-20     	; 0x9b6 <keypad_poll+0x122>
     9ca:	01 d5       	rcall	.+2562   	; 0x13ce <stepper_unload_paper>
     9cc:	22 d1       	rcall	.+580    	; 0xc12 <lcd_clear>
     9ce:	63 e0       	ldi	r22, 0x03	; 3
     9d0:	71 e0       	ldi	r23, 0x01	; 1
     9d2:	8f e5       	ldi	r24, 0x5F	; 95
     9d4:	91 e0       	ldi	r25, 0x01	; 1
     9d6:	ef cf       	rjmp	.-34     	; 0x9b6 <keypad_poll+0x122>
     9d8:	1c d1       	rcall	.+568    	; 0xc12 <lcd_clear>
     9da:	63 e0       	ldi	r22, 0x03	; 3
     9dc:	71 e0       	ldi	r23, 0x01	; 1
     9de:	8e e6       	ldi	r24, 0x6E	; 110
     9e0:	91 e0       	ldi	r25, 0x01	; 1
     9e2:	0e 94 40 0f 	call	0x1e80	; 0x1e80 <fputs>
     9e6:	0d d5       	rcall	.+2586   	; 0x1402 <stepper_home>
     9e8:	4a c0       	rjmp	.+148    	; 0xa7e <keypad_poll+0x1ea>
     9ea:	2c d4       	rcall	.+2136   	; 0x1244 <stepper_set_origin00>
     9ec:	12 d1       	rcall	.+548    	; 0xc12 <lcd_clear>
     9ee:	63 e0       	ldi	r22, 0x03	; 3
     9f0:	71 e0       	ldi	r23, 0x01	; 1
     9f2:	81 e8       	ldi	r24, 0x81	; 129
     9f4:	91 e0       	ldi	r25, 0x01	; 1
     9f6:	df cf       	rjmp	.-66     	; 0x9b6 <keypad_poll+0x122>
     9f8:	69 e1       	ldi	r22, 0x19	; 25
     9fa:	70 e0       	ldi	r23, 0x00	; 0
     9fc:	ce 01       	movw	r24, r28
     9fe:	a0 d4       	rcall	.+2368   	; 0x1340 <stepper_jog_manual>
     a00:	e6 e1       	ldi	r30, 0x16	; 22
     a02:	f2 e0       	ldi	r31, 0x02	; 2
     a04:	86 e2       	ldi	r24, 0x26	; 38
     a06:	92 e0       	ldi	r25, 0x02	; 2
     a08:	11 92       	st	Z+, r1
     a0a:	8e 17       	cp	r24, r30
     a0c:	9f 07       	cpc	r25, r31
     a0e:	e1 f7       	brne	.-8      	; 0xa08 <keypad_poll+0x174>
     a10:	36 c0       	rjmp	.+108    	; 0xa7e <keypad_poll+0x1ea>
     a12:	ff d0       	rcall	.+510    	; 0xc12 <lcd_clear>
     a14:	63 e0       	ldi	r22, 0x03	; 3
     a16:	71 e0       	ldi	r23, 0x01	; 1
     a18:	8e e9       	ldi	r24, 0x9E	; 158
     a1a:	91 e0       	ldi	r25, 0x01	; 1
     a1c:	0e 94 40 0f 	call	0x1e80	; 0x1e80 <fputs>
     a20:	e6 d4       	rcall	.+2508   	; 0x13ee <pen_up>
     a22:	2d c0       	rjmp	.+90     	; 0xa7e <keypad_poll+0x1ea>
     a24:	90 93 ea 01 	sts	0x01EA, r25	; 0x8001ea <k_state+0x1>
     a28:	80 93 e9 01 	sts	0x01E9, r24	; 0x8001e9 <k_state>
     a2c:	66 d1       	rcall	.+716    	; 0xcfa <lcd_report_speed1>
     a2e:	27 c0       	rjmp	.+78     	; 0xa7e <keypad_poll+0x1ea>
     a30:	80 91 e9 01 	lds	r24, 0x01E9	; 0x8001e9 <k_state>
     a34:	90 91 ea 01 	lds	r25, 0x01EA	; 0x8001ea <k_state+0x1>
     a38:	89 2b       	or	r24, r25
     a3a:	21 f4       	brne	.+8      	; 0xa44 <keypad_poll+0x1b0>
     a3c:	86 d7       	rcall	.+3852   	; 0x194a <timer_get_pen_pressure>
     a3e:	01 97       	sbiw	r24, 0x01	; 1
     a40:	89 d7       	rcall	.+3858   	; 0x1954 <timer_set_pen_pressure>
     a42:	f7 d0       	rcall	.+494    	; 0xc32 <lcd_report_pressure>
     a44:	80 91 e9 01 	lds	r24, 0x01E9	; 0x8001e9 <k_state>
     a48:	90 91 ea 01 	lds	r25, 0x01EA	; 0x8001ea <k_state+0x1>
     a4c:	01 97       	sbiw	r24, 0x01	; 1
     a4e:	b9 f4       	brne	.+46     	; 0xa7e <keypad_poll+0x1ea>
     a50:	58 d7       	rcall	.+3760   	; 0x1902 <timer_get_stepper_speed>
     a52:	01 97       	sbiw	r24, 0x01	; 1
     a54:	12 c0       	rjmp	.+36     	; 0xa7a <keypad_poll+0x1e6>
     a56:	80 91 e9 01 	lds	r24, 0x01E9	; 0x8001e9 <k_state>
     a5a:	90 91 ea 01 	lds	r25, 0x01EA	; 0x8001ea <k_state+0x1>
     a5e:	89 2b       	or	r24, r25
     a60:	21 f4       	brne	.+8      	; 0xa6a <keypad_poll+0x1d6>
     a62:	73 d7       	rcall	.+3814   	; 0x194a <timer_get_pen_pressure>
     a64:	01 96       	adiw	r24, 0x01	; 1
     a66:	76 d7       	rcall	.+3820   	; 0x1954 <timer_set_pen_pressure>
     a68:	e4 d0       	rcall	.+456    	; 0xc32 <lcd_report_pressure>
     a6a:	80 91 e9 01 	lds	r24, 0x01E9	; 0x8001e9 <k_state>
     a6e:	90 91 ea 01 	lds	r25, 0x01EA	; 0x8001ea <k_state+0x1>
     a72:	01 97       	sbiw	r24, 0x01	; 1
     a74:	21 f4       	brne	.+8      	; 0xa7e <keypad_poll+0x1ea>
     a76:	45 d7       	rcall	.+3722   	; 0x1902 <timer_get_stepper_speed>
     a78:	01 96       	adiw	r24, 0x01	; 1
     a7a:	48 d7       	rcall	.+3728   	; 0x190c <timer_set_stepper_speed>
     a7c:	ff d0       	rcall	.+510    	; 0xc7c <lcd_report_speed>
     a7e:	ce 01       	movw	r24, r28
     a80:	ea de       	rcall	.-556    	; 0x856 <_beep>
     a82:	ce 01       	movw	r24, r28
     a84:	df 91       	pop	r29
     a86:	cf 91       	pop	r28
     a88:	08 95       	ret

00000a8a <keypad_init>:
     a8a:	97 98       	cbi	0x12, 7	; 18
     a8c:	95 9a       	sbi	0x12, 5	; 18
     a8e:	81 b3       	in	r24, 0x11	; 17
     a90:	80 6e       	ori	r24, 0xE0	; 224
     a92:	81 bb       	out	0x11, r24	; 17
     a94:	90 9a       	sbi	0x12, 0	; 18
     a96:	e4 e6       	ldi	r30, 0x64	; 100
     a98:	f0 e0       	ldi	r31, 0x00	; 0
     a9a:	80 81       	ld	r24, Z
     a9c:	80 7e       	andi	r24, 0xE0	; 224
     a9e:	80 83       	st	Z, r24
     aa0:	e5 e6       	ldi	r30, 0x65	; 101
     aa2:	f0 e0       	ldi	r31, 0x00	; 0
     aa4:	80 81       	ld	r24, Z
     aa6:	8f 61       	ori	r24, 0x1F	; 31
     aa8:	80 83       	st	Z, r24
     aaa:	08 95       	ret

00000aac <lcd_read>:
     aac:	83 b1       	in	r24, 0x03	; 3
     aae:	80 6f       	ori	r24, 0xF0	; 240
     ab0:	83 b9       	out	0x03, r24	; 3
     ab2:	82 b1       	in	r24, 0x02	; 2
     ab4:	8f 70       	andi	r24, 0x0F	; 15
     ab6:	82 b9       	out	0x02, r24	; 2
     ab8:	e2 e6       	ldi	r30, 0x62	; 98
     aba:	f0 e0       	ldi	r31, 0x00	; 0
     abc:	80 81       	ld	r24, Z
     abe:	80 64       	ori	r24, 0x40	; 64
     ac0:	80 83       	st	Z, r24
     ac2:	80 81       	ld	r24, Z
     ac4:	80 68       	ori	r24, 0x80	; 128
     ac6:	80 83       	st	Z, r24
     ac8:	80 81       	ld	r24, Z
     aca:	80 68       	ori	r24, 0x80	; 128
     acc:	80 83       	st	Z, r24
     ace:	91 b1       	in	r25, 0x01	; 1
     ad0:	80 81       	ld	r24, Z
     ad2:	8f 77       	andi	r24, 0x7F	; 127
     ad4:	80 83       	st	Z, r24
     ad6:	80 81       	ld	r24, Z
     ad8:	80 68       	ori	r24, 0x80	; 128
     ada:	80 83       	st	Z, r24
     adc:	80 81       	ld	r24, Z
     ade:	80 68       	ori	r24, 0x80	; 128
     ae0:	80 83       	st	Z, r24
     ae2:	21 b1       	in	r18, 0x01	; 1
     ae4:	22 95       	swap	r18
     ae6:	2f 70       	andi	r18, 0x0F	; 15
     ae8:	89 2f       	mov	r24, r25
     aea:	80 7f       	andi	r24, 0xF0	; 240
     aec:	90 81       	ld	r25, Z
     aee:	9f 77       	andi	r25, 0x7F	; 127
     af0:	90 83       	st	Z, r25
     af2:	90 81       	ld	r25, Z
     af4:	9f 7b       	andi	r25, 0xBF	; 191
     af6:	90 83       	st	Z, r25
     af8:	92 b1       	in	r25, 0x02	; 2
     afa:	90 6f       	ori	r25, 0xF0	; 240
     afc:	92 b9       	out	0x02, r25	; 2
     afe:	82 2b       	or	r24, r18
     b00:	08 95       	ret

00000b02 <lcd_backlight_on>:
     b02:	e2 e6       	ldi	r30, 0x62	; 98
     b04:	f0 e0       	ldi	r31, 0x00	; 0
     b06:	80 81       	ld	r24, Z
     b08:	8f 7e       	andi	r24, 0xEF	; 239
     b0a:	80 83       	st	Z, r24
     b0c:	08 95       	ret

00000b0e <lcd_wait_ready>:
     b0e:	cf 93       	push	r28
     b10:	df 93       	push	r29
     b12:	c0 e1       	ldi	r28, 0x10	; 16
     b14:	d7 e2       	ldi	r29, 0x27	; 39
     b16:	ca df       	rcall	.-108    	; 0xaac <lcd_read>
     b18:	87 ff       	sbrs	r24, 7
     b1a:	05 c0       	rjmp	.+10     	; 0xb26 <lcd_wait_ready+0x18>
     b1c:	21 97       	sbiw	r28, 0x01	; 1
     b1e:	d9 f7       	brne	.-10     	; 0xb16 <lcd_wait_ready+0x8>
     b20:	8f ef       	ldi	r24, 0xFF	; 255
     b22:	9f ef       	ldi	r25, 0xFF	; 255
     b24:	02 c0       	rjmp	.+4      	; 0xb2a <lcd_wait_ready+0x1c>
     b26:	80 e0       	ldi	r24, 0x00	; 0
     b28:	90 e0       	ldi	r25, 0x00	; 0
     b2a:	df 91       	pop	r29
     b2c:	cf 91       	pop	r28
     b2e:	08 95       	ret

00000b30 <lcd_write_nibble>:
     b30:	93 b1       	in	r25, 0x03	; 3
     b32:	9f 70       	andi	r25, 0x0F	; 15
     b34:	80 7f       	andi	r24, 0xF0	; 240
     b36:	89 2b       	or	r24, r25
     b38:	83 b9       	out	0x03, r24	; 3
     b3a:	e2 e6       	ldi	r30, 0x62	; 98
     b3c:	f0 e0       	ldi	r31, 0x00	; 0
     b3e:	80 81       	ld	r24, Z
     b40:	80 68       	ori	r24, 0x80	; 128
     b42:	80 83       	st	Z, r24
     b44:	80 81       	ld	r24, Z
     b46:	8f 77       	andi	r24, 0x7F	; 127
     b48:	80 83       	st	Z, r24
     b4a:	08 95       	ret

00000b4c <lcd_write_control>:
     b4c:	cf 93       	push	r28
     b4e:	c8 2f       	mov	r28, r24
     b50:	ef df       	rcall	.-34     	; 0xb30 <lcd_write_nibble>
     b52:	8c 2f       	mov	r24, r28
     b54:	82 95       	swap	r24
     b56:	80 7f       	andi	r24, 0xF0	; 240
     b58:	eb df       	rcall	.-42     	; 0xb30 <lcd_write_nibble>
     b5a:	cf 91       	pop	r28
     b5c:	d8 cf       	rjmp	.-80     	; 0xb0e <lcd_wait_ready>

00000b5e <lcd_pos>:
     b5e:	80 31       	cpi	r24, 0x10	; 16
     b60:	08 f0       	brcs	.+2      	; 0xb64 <lcd_pos+0x6>
     b62:	80 e0       	ldi	r24, 0x00	; 0
     b64:	80 93 eb 01 	sts	0x01EB, r24	; 0x8001eb <current_pos>
     b68:	88 30       	cpi	r24, 0x08	; 8
     b6a:	08 f0       	brcs	.+2      	; 0xb6e <lcd_pos+0x10>
     b6c:	80 5e       	subi	r24, 0xE0	; 224
     b6e:	80 58       	subi	r24, 0x80	; 128
     b70:	ed cf       	rjmp	.-38     	; 0xb4c <lcd_write_control>

00000b72 <lcd_putchar>:
     b72:	cf 93       	push	r28
     b74:	90 91 eb 01 	lds	r25, 0x01EB	; 0x8001eb <current_pos>
     b78:	90 31       	cpi	r25, 0x10	; 16
     b7a:	d0 f4       	brcc	.+52     	; 0xbb0 <lcd_putchar+0x3e>
     b7c:	c8 2f       	mov	r28, r24
     b7e:	80 91 62 00 	lds	r24, 0x0062	; 0x800062 <__TEXT_REGION_LENGTH__+0x7e0062>
     b82:	80 62       	ori	r24, 0x20	; 32
     b84:	80 93 62 00 	sts	0x0062, r24	; 0x800062 <__TEXT_REGION_LENGTH__+0x7e0062>
     b88:	8c 2f       	mov	r24, r28
     b8a:	d2 df       	rcall	.-92     	; 0xb30 <lcd_write_nibble>
     b8c:	8c 2f       	mov	r24, r28
     b8e:	82 95       	swap	r24
     b90:	80 7f       	andi	r24, 0xF0	; 240
     b92:	ce df       	rcall	.-100    	; 0xb30 <lcd_write_nibble>
     b94:	80 91 62 00 	lds	r24, 0x0062	; 0x800062 <__TEXT_REGION_LENGTH__+0x7e0062>
     b98:	8f 7d       	andi	r24, 0xDF	; 223
     b9a:	80 93 62 00 	sts	0x0062, r24	; 0x800062 <__TEXT_REGION_LENGTH__+0x7e0062>
     b9e:	b7 df       	rcall	.-146    	; 0xb0e <lcd_wait_ready>
     ba0:	80 91 eb 01 	lds	r24, 0x01EB	; 0x8001eb <current_pos>
     ba4:	8f 5f       	subi	r24, 0xFF	; 255
     ba6:	80 93 eb 01 	sts	0x01EB, r24	; 0x8001eb <current_pos>
     baa:	88 30       	cpi	r24, 0x08	; 8
     bac:	09 f4       	brne	.+2      	; 0xbb0 <lcd_putchar+0x3e>
     bae:	d7 df       	rcall	.-82     	; 0xb5e <lcd_pos>
     bb0:	81 e0       	ldi	r24, 0x01	; 1
     bb2:	90 e0       	ldi	r25, 0x00	; 0
     bb4:	cf 91       	pop	r28
     bb6:	08 95       	ret

00000bb8 <lcd_init>:
     bb8:	e2 e6       	ldi	r30, 0x62	; 98
     bba:	f0 e0       	ldi	r31, 0x00	; 0
     bbc:	80 81       	ld	r24, Z
     bbe:	8f 71       	andi	r24, 0x1F	; 31
     bc0:	80 83       	st	Z, r24
     bc2:	e1 e6       	ldi	r30, 0x61	; 97
     bc4:	f0 e0       	ldi	r31, 0x00	; 0
     bc6:	80 81       	ld	r24, Z
     bc8:	80 6f       	ori	r24, 0xF0	; 240
     bca:	80 83       	st	Z, r24
     bcc:	82 b1       	in	r24, 0x02	; 2
     bce:	80 6f       	ori	r24, 0xF0	; 240
     bd0:	82 b9       	out	0x02, r24	; 2
     bd2:	8f e0       	ldi	r24, 0x0F	; 15
     bd4:	90 e0       	ldi	r25, 0x00	; 0
     bd6:	88 d6       	rcall	.+3344   	; 0x18e8 <msleep>
     bd8:	80 e3       	ldi	r24, 0x30	; 48
     bda:	aa df       	rcall	.-172    	; 0xb30 <lcd_write_nibble>
     bdc:	85 e0       	ldi	r24, 0x05	; 5
     bde:	90 e0       	ldi	r25, 0x00	; 0
     be0:	83 d6       	rcall	.+3334   	; 0x18e8 <msleep>
     be2:	80 e3       	ldi	r24, 0x30	; 48
     be4:	a5 df       	rcall	.-182    	; 0xb30 <lcd_write_nibble>
     be6:	84 e6       	ldi	r24, 0x64	; 100
     be8:	90 e0       	ldi	r25, 0x00	; 0
     bea:	70 d6       	rcall	.+3296   	; 0x18cc <usleep>
     bec:	80 e3       	ldi	r24, 0x30	; 48
     bee:	a0 df       	rcall	.-192    	; 0xb30 <lcd_write_nibble>
     bf0:	84 e6       	ldi	r24, 0x64	; 100
     bf2:	90 e0       	ldi	r25, 0x00	; 0
     bf4:	6b d6       	rcall	.+3286   	; 0x18cc <usleep>
     bf6:	80 e2       	ldi	r24, 0x20	; 32
     bf8:	9b df       	rcall	.-202    	; 0xb30 <lcd_write_nibble>
     bfa:	84 e6       	ldi	r24, 0x64	; 100
     bfc:	90 e0       	ldi	r25, 0x00	; 0
     bfe:	66 d6       	rcall	.+3276   	; 0x18cc <usleep>
     c00:	88 e2       	ldi	r24, 0x28	; 40
     c02:	a4 df       	rcall	.-184    	; 0xb4c <lcd_write_control>
     c04:	8c e0       	ldi	r24, 0x0C	; 12
     c06:	a2 df       	rcall	.-188    	; 0xb4c <lcd_write_control>
     c08:	81 e0       	ldi	r24, 0x01	; 1
     c0a:	a0 df       	rcall	.-192    	; 0xb4c <lcd_write_control>
     c0c:	10 92 eb 01 	sts	0x01EB, r1	; 0x8001eb <current_pos>
     c10:	78 cf       	rjmp	.-272    	; 0xb02 <lcd_backlight_on>

00000c12 <lcd_clear>:
     c12:	81 e0       	ldi	r24, 0x01	; 1
     c14:	9b df       	rcall	.-202    	; 0xb4c <lcd_write_control>
     c16:	10 92 eb 01 	sts	0x01EB, r1	; 0x8001eb <current_pos>
     c1a:	08 95       	ret

00000c1c <sync_states>:
     c1c:	96 d6       	rcall	.+3372   	; 0x194a <timer_get_pen_pressure>
     c1e:	90 93 39 02 	sts	0x0239, r25	; 0x800239 <last_pen_pressure+0x1>
     c22:	80 93 38 02 	sts	0x0238, r24	; 0x800238 <last_pen_pressure>
     c26:	6d d6       	rcall	.+3290   	; 0x1902 <timer_get_stepper_speed>
     c28:	90 93 3b 02 	sts	0x023B, r25	; 0x80023b <last_stepper_speed+0x1>
     c2c:	80 93 3a 02 	sts	0x023A, r24	; 0x80023a <last_stepper_speed>
     c30:	08 95       	ret

00000c32 <lcd_report_pressure>:
     c32:	cf 93       	push	r28
     c34:	df 93       	push	r29
     c36:	89 d6       	rcall	.+3346   	; 0x194a <timer_get_pen_pressure>
     c38:	ec 01       	movw	r28, r24
     c3a:	80 91 38 02 	lds	r24, 0x0238	; 0x800238 <last_pen_pressure>
     c3e:	90 91 39 02 	lds	r25, 0x0239	; 0x800239 <last_pen_pressure+0x1>
     c42:	c8 17       	cp	r28, r24
     c44:	d9 07       	cpc	r29, r25
     c46:	b9 f0       	breq	.+46     	; 0xc76 <lcd_report_pressure+0x44>
     c48:	e4 df       	rcall	.-56     	; 0xc12 <lcd_clear>
     c4a:	df 93       	push	r29
     c4c:	cf 93       	push	r28
     c4e:	88 ea       	ldi	r24, 0xA8	; 168
     c50:	91 e0       	ldi	r25, 0x01	; 1
     c52:	9f 93       	push	r25
     c54:	8f 93       	push	r24
     c56:	83 e0       	ldi	r24, 0x03	; 3
     c58:	91 e0       	ldi	r25, 0x01	; 1
     c5a:	9f 93       	push	r25
     c5c:	8f 93       	push	r24
     c5e:	0e 94 31 0f 	call	0x1e62	; 0x1e62 <fprintf>
     c62:	d0 93 39 02 	sts	0x0239, r29	; 0x800239 <last_pen_pressure+0x1>
     c66:	c0 93 38 02 	sts	0x0238, r28	; 0x800238 <last_pen_pressure>
     c6a:	0f 90       	pop	r0
     c6c:	0f 90       	pop	r0
     c6e:	0f 90       	pop	r0
     c70:	0f 90       	pop	r0
     c72:	0f 90       	pop	r0
     c74:	0f 90       	pop	r0
     c76:	df 91       	pop	r29
     c78:	cf 91       	pop	r28
     c7a:	08 95       	ret

00000c7c <lcd_report_speed>:
     c7c:	cf 93       	push	r28
     c7e:	df 93       	push	r29
     c80:	40 d6       	rcall	.+3200   	; 0x1902 <timer_get_stepper_speed>
     c82:	ec 01       	movw	r28, r24
     c84:	80 91 3a 02 	lds	r24, 0x023A	; 0x80023a <last_stepper_speed>
     c88:	90 91 3b 02 	lds	r25, 0x023B	; 0x80023b <last_stepper_speed+0x1>
     c8c:	c8 17       	cp	r28, r24
     c8e:	d9 07       	cpc	r29, r25
     c90:	b9 f0       	breq	.+46     	; 0xcc0 <lcd_report_speed+0x44>
     c92:	bf df       	rcall	.-130    	; 0xc12 <lcd_clear>
     c94:	df 93       	push	r29
     c96:	cf 93       	push	r28
     c98:	85 eb       	ldi	r24, 0xB5	; 181
     c9a:	91 e0       	ldi	r25, 0x01	; 1
     c9c:	9f 93       	push	r25
     c9e:	8f 93       	push	r24
     ca0:	83 e0       	ldi	r24, 0x03	; 3
     ca2:	91 e0       	ldi	r25, 0x01	; 1
     ca4:	9f 93       	push	r25
     ca6:	8f 93       	push	r24
     ca8:	0e 94 31 0f 	call	0x1e62	; 0x1e62 <fprintf>
     cac:	d0 93 3b 02 	sts	0x023B, r29	; 0x80023b <last_stepper_speed+0x1>
     cb0:	c0 93 3a 02 	sts	0x023A, r28	; 0x80023a <last_stepper_speed>
     cb4:	0f 90       	pop	r0
     cb6:	0f 90       	pop	r0
     cb8:	0f 90       	pop	r0
     cba:	0f 90       	pop	r0
     cbc:	0f 90       	pop	r0
     cbe:	0f 90       	pop	r0
     cc0:	df 91       	pop	r29
     cc2:	cf 91       	pop	r28
     cc4:	08 95       	ret

00000cc6 <lcd_report_pressure1>:
     cc6:	cf 93       	push	r28
     cc8:	df 93       	push	r29
     cca:	3f d6       	rcall	.+3198   	; 0x194a <timer_get_pen_pressure>
     ccc:	ec 01       	movw	r28, r24
     cce:	a1 df       	rcall	.-190    	; 0xc12 <lcd_clear>
     cd0:	df 93       	push	r29
     cd2:	cf 93       	push	r28
     cd4:	88 ea       	ldi	r24, 0xA8	; 168
     cd6:	91 e0       	ldi	r25, 0x01	; 1
     cd8:	9f 93       	push	r25
     cda:	8f 93       	push	r24
     cdc:	83 e0       	ldi	r24, 0x03	; 3
     cde:	91 e0       	ldi	r25, 0x01	; 1
     ce0:	9f 93       	push	r25
     ce2:	8f 93       	push	r24
     ce4:	0e 94 31 0f 	call	0x1e62	; 0x1e62 <fprintf>
     ce8:	0f 90       	pop	r0
     cea:	0f 90       	pop	r0
     cec:	0f 90       	pop	r0
     cee:	0f 90       	pop	r0
     cf0:	0f 90       	pop	r0
     cf2:	0f 90       	pop	r0
     cf4:	df 91       	pop	r29
     cf6:	cf 91       	pop	r28
     cf8:	08 95       	ret

00000cfa <lcd_report_speed1>:
     cfa:	cf 93       	push	r28
     cfc:	df 93       	push	r29
     cfe:	01 d6       	rcall	.+3074   	; 0x1902 <timer_get_stepper_speed>
     d00:	ec 01       	movw	r28, r24
     d02:	87 df       	rcall	.-242    	; 0xc12 <lcd_clear>
     d04:	df 93       	push	r29
     d06:	cf 93       	push	r28
     d08:	85 eb       	ldi	r24, 0xB5	; 181
     d0a:	91 e0       	ldi	r25, 0x01	; 1
     d0c:	9f 93       	push	r25
     d0e:	8f 93       	push	r24
     d10:	83 e0       	ldi	r24, 0x03	; 3
     d12:	91 e0       	ldi	r25, 0x01	; 1
     d14:	9f 93       	push	r25
     d16:	8f 93       	push	r24
     d18:	0e 94 31 0f 	call	0x1e62	; 0x1e62 <fprintf>
     d1c:	0f 90       	pop	r0
     d1e:	0f 90       	pop	r0
     d20:	0f 90       	pop	r0
     d22:	0f 90       	pop	r0
     d24:	0f 90       	pop	r0
     d26:	0f 90       	pop	r0
     d28:	df 91       	pop	r29
     d2a:	cf 91       	pop	r28
     d2c:	08 95       	ret

00000d2e <setup>:
     d2e:	2e d6       	rcall	.+3164   	; 0x198c <timer_init>
     d30:	ac de       	rcall	.-680    	; 0xa8a <keypad_init>
     d32:	42 df       	rcall	.-380    	; 0xbb8 <lcd_init>
     d34:	78 94       	sei
     d36:	53 d6       	rcall	.+3238   	; 0x19de <usb_init>
     d38:	55 d5       	rcall	.+2730   	; 0x17e4 <stepper_init>
     d3a:	a8 da       	rcall	.-2736   	; 0x28c <hpgl_init>
     d3c:	a0 da       	rcall	.-2752   	; 0x27e <dial_init>
     d3e:	78 94       	sei
     d40:	53 da       	rcall	.-2906   	; 0x1e8 <dial_poll>
     d42:	84 e6       	ldi	r24, 0x64	; 100
     d44:	90 e0       	ldi	r25, 0x00	; 0
     d46:	d0 d5       	rcall	.+2976   	; 0x18e8 <msleep>
     d48:	4f da       	rcall	.-2914   	; 0x1e8 <dial_poll>
     d4a:	84 e6       	ldi	r24, 0x64	; 100
     d4c:	90 e0       	ldi	r25, 0x00	; 0
     d4e:	cc d5       	rcall	.+2968   	; 0x18e8 <msleep>
     d50:	4b da       	rcall	.-2922   	; 0x1e8 <dial_poll>
     d52:	84 e6       	ldi	r24, 0x64	; 100
     d54:	90 e0       	ldi	r25, 0x00	; 0
     d56:	c8 d5       	rcall	.+2960   	; 0x18e8 <msleep>
     d58:	61 df       	rcall	.-318    	; 0xc1c <sync_states>
     d5a:	5b df       	rcall	.-330    	; 0xc12 <lcd_clear>
     d5c:	63 e0       	ldi	r22, 0x03	; 3
     d5e:	71 e0       	ldi	r23, 0x01	; 1
     d60:	8f eb       	ldi	r24, 0xBF	; 191
     d62:	91 e0       	ldi	r25, 0x01	; 1
     d64:	0e 94 40 0f 	call	0x1e80	; 0x1e80 <fputs>
     d68:	59 cf       	rjmp	.-334    	; 0xc1c <sync_states>

00000d6a <main>:
     d6a:	e1 df       	rcall	.-62     	; 0xd2e <setup>
     d6c:	e6 d9       	rcall	.-3124   	; 0x13a <cli_poll>
     d6e:	a8 95       	wdr
     d70:	80 91 1a 04 	lds	r24, 0x041A	; 0x80041a <flag_25Hz>
     d74:	88 23       	and	r24, r24
     d76:	21 f0       	breq	.+8      	; 0xd80 <main+0x16>
     d78:	10 92 1a 04 	sts	0x041A, r1	; 0x80041a <flag_25Hz>
     d7c:	35 da       	rcall	.-2966   	; 0x1e8 <dial_poll>
     d7e:	8a dd       	rcall	.-1260   	; 0x894 <keypad_poll>
     d80:	80 91 19 04 	lds	r24, 0x0419	; 0x800419 <flag_Hz>
     d84:	88 23       	and	r24, r24
     d86:	91 f3       	breq	.-28     	; 0xd6c <main+0x2>
     d88:	10 92 19 04 	sts	0x0419, r1	; 0x800419 <flag_Hz>
     d8c:	ef cf       	rjmp	.-34     	; 0xd6c <main+0x2>

00000d8e <translate_init>:
     d8e:	80 e0       	ldi	r24, 0x00	; 0
     d90:	90 e0       	ldi	r25, 0x00	; 0
     d92:	a0 e8       	ldi	r26, 0x80	; 128
     d94:	bf e3       	ldi	r27, 0x3F	; 63
     d96:	80 93 ec 01 	sts	0x01EC, r24	; 0x8001ec <user_yscale>
     d9a:	90 93 ed 01 	sts	0x01ED, r25	; 0x8001ed <user_yscale+0x1>
     d9e:	a0 93 ee 01 	sts	0x01EE, r26	; 0x8001ee <user_yscale+0x2>
     da2:	b0 93 ef 01 	sts	0x01EF, r27	; 0x8001ef <user_yscale+0x3>
     da6:	80 93 f0 01 	sts	0x01F0, r24	; 0x8001f0 <user_xscale>
     daa:	90 93 f1 01 	sts	0x01F1, r25	; 0x8001f1 <user_xscale+0x1>
     dae:	a0 93 f2 01 	sts	0x01F2, r26	; 0x8001f2 <user_xscale+0x2>
     db2:	b0 93 f3 01 	sts	0x01F3, r27	; 0x8001f3 <user_xscale+0x3>
     db6:	ed e5       	ldi	r30, 0x5D	; 93
     db8:	f3 e0       	ldi	r31, 0x03	; 3
     dba:	10 82       	st	Z, r1
     dbc:	11 82       	std	Z+1, r1	; 0x01
     dbe:	12 82       	std	Z+2, r1	; 0x02
     dc0:	13 82       	std	Z+3, r1	; 0x03
     dc2:	14 82       	std	Z+4, r1	; 0x04
     dc4:	15 82       	std	Z+5, r1	; 0x05
     dc6:	16 82       	std	Z+6, r1	; 0x06
     dc8:	17 82       	std	Z+7, r1	; 0x07
     dca:	4c e1       	ldi	r20, 0x1C	; 28
     dcc:	55 e2       	ldi	r21, 0x25	; 37
     dce:	60 e0       	ldi	r22, 0x00	; 0
     dd0:	70 e0       	ldi	r23, 0x00	; 0
     dd2:	40 87       	std	Z+8, r20	; 0x08
     dd4:	51 87       	std	Z+9, r21	; 0x09
     dd6:	62 87       	std	Z+10, r22	; 0x0a
     dd8:	73 87       	std	Z+11, r23	; 0x0b
     dda:	88 e5       	ldi	r24, 0x58	; 88
     ddc:	9b e1       	ldi	r25, 0x1B	; 27
     dde:	a0 e0       	ldi	r26, 0x00	; 0
     de0:	b0 e0       	ldi	r27, 0x00	; 0
     de2:	84 87       	std	Z+12, r24	; 0x0c
     de4:	95 87       	std	Z+13, r25	; 0x0d
     de6:	a6 87       	std	Z+14, r26	; 0x0e
     de8:	b7 87       	std	Z+15, r27	; 0x0f
     dea:	ed ef       	ldi	r30, 0xFD	; 253
     dec:	f2 e0       	ldi	r31, 0x02	; 2
     dee:	10 82       	st	Z, r1
     df0:	11 82       	std	Z+1, r1	; 0x01
     df2:	12 82       	std	Z+2, r1	; 0x02
     df4:	13 82       	std	Z+3, r1	; 0x03
     df6:	44 83       	std	Z+4, r20	; 0x04
     df8:	55 83       	std	Z+5, r21	; 0x05
     dfa:	66 83       	std	Z+6, r22	; 0x06
     dfc:	77 83       	std	Z+7, r23	; 0x07
     dfe:	10 86       	std	Z+8, r1	; 0x08
     e00:	11 86       	std	Z+9, r1	; 0x09
     e02:	12 86       	std	Z+10, r1	; 0x0a
     e04:	13 86       	std	Z+11, r1	; 0x0b
     e06:	84 87       	std	Z+12, r24	; 0x0c
     e08:	95 87       	std	Z+13, r25	; 0x0d
     e0a:	a6 87       	std	Z+14, r26	; 0x0e
     e0c:	b7 87       	std	Z+15, r27	; 0x0f
     e0e:	08 95       	ret

00000e10 <translate_scale>:
     e10:	4f 92       	push	r4
     e12:	5f 92       	push	r5
     e14:	6f 92       	push	r6
     e16:	7f 92       	push	r7
     e18:	8f 92       	push	r8
     e1a:	9f 92       	push	r9
     e1c:	af 92       	push	r10
     e1e:	bf 92       	push	r11
     e20:	cf 92       	push	r12
     e22:	df 92       	push	r13
     e24:	ef 92       	push	r14
     e26:	ff 92       	push	r15
     e28:	cf 93       	push	r28
     e2a:	df 93       	push	r29
     e2c:	cd b7       	in	r28, 0x3d	; 61
     e2e:	de b7       	in	r29, 0x3e	; 62
     e30:	28 97       	sbiw	r28, 0x08	; 8
     e32:	0f b6       	in	r0, 0x3f	; 63
     e34:	f8 94       	cli
     e36:	de bf       	out	0x3e, r29	; 62
     e38:	0f be       	out	0x3f, r0	; 63
     e3a:	cd bf       	out	0x3d, r28	; 61
     e3c:	ed e5       	ldi	r30, 0x5D	; 93
     e3e:	f3 e0       	ldi	r31, 0x03	; 3
     e40:	84 84       	ldd	r8, Z+12	; 0x0c
     e42:	95 84       	ldd	r9, Z+13	; 0x0d
     e44:	a6 84       	ldd	r10, Z+14	; 0x0e
     e46:	b7 84       	ldd	r11, Z+15	; 0x0f
     e48:	84 81       	ldd	r24, Z+4	; 0x04
     e4a:	95 81       	ldd	r25, Z+5	; 0x05
     e4c:	a6 81       	ldd	r26, Z+6	; 0x06
     e4e:	b7 81       	ldd	r27, Z+7	; 0x07
     e50:	88 1a       	sub	r8, r24
     e52:	99 0a       	sbc	r9, r25
     e54:	aa 0a       	sbc	r10, r26
     e56:	bb 0a       	sbc	r11, r27
     e58:	ad ef       	ldi	r26, 0xFD	; 253
     e5a:	b2 e0       	ldi	r27, 0x02	; 2
     e5c:	2d 91       	ld	r18, X+
     e5e:	3d 91       	ld	r19, X+
     e60:	4d 91       	ld	r20, X+
     e62:	5c 91       	ld	r21, X
     e64:	29 83       	std	Y+1, r18	; 0x01
     e66:	3a 83       	std	Y+2, r19	; 0x02
     e68:	4b 83       	std	Y+3, r20	; 0x03
     e6a:	5c 83       	std	Y+4, r21	; 0x04
     e6c:	20 91 05 03 	lds	r18, 0x0305	; 0x800305 <sc_pad+0x8>
     e70:	30 91 06 03 	lds	r19, 0x0306	; 0x800306 <sc_pad+0x9>
     e74:	40 91 07 03 	lds	r20, 0x0307	; 0x800307 <sc_pad+0xa>
     e78:	50 91 08 03 	lds	r21, 0x0308	; 0x800308 <sc_pad+0xb>
     e7c:	2d 83       	std	Y+5, r18	; 0x05
     e7e:	3e 83       	std	Y+6, r19	; 0x06
     e80:	4f 83       	std	Y+7, r20	; 0x07
     e82:	58 87       	std	Y+8, r21	; 0x08
     e84:	c0 90 09 03 	lds	r12, 0x0309	; 0x800309 <sc_pad+0xc>
     e88:	d0 90 0a 03 	lds	r13, 0x030A	; 0x80030a <sc_pad+0xd>
     e8c:	e0 90 0b 03 	lds	r14, 0x030B	; 0x80030b <sc_pad+0xe>
     e90:	f0 90 0c 03 	lds	r15, 0x030C	; 0x80030c <sc_pad+0xf>
     e94:	c2 1a       	sub	r12, r18
     e96:	d3 0a       	sbc	r13, r19
     e98:	e4 0a       	sbc	r14, r20
     e9a:	f5 0a       	sbc	r15, r21
     e9c:	80 85       	ldd	r24, Z+8	; 0x08
     e9e:	91 85       	ldd	r25, Z+9	; 0x09
     ea0:	a2 85       	ldd	r26, Z+10	; 0x0a
     ea2:	b3 85       	ldd	r27, Z+11	; 0x0b
     ea4:	40 80       	ld	r4, Z
     ea6:	51 80       	ldd	r5, Z+1	; 0x01
     ea8:	62 80       	ldd	r6, Z+2	; 0x02
     eaa:	73 80       	ldd	r7, Z+3	; 0x03
     eac:	bc 01       	movw	r22, r24
     eae:	cd 01       	movw	r24, r26
     eb0:	64 19       	sub	r22, r4
     eb2:	75 09       	sbc	r23, r5
     eb4:	86 09       	sbc	r24, r6
     eb6:	97 09       	sbc	r25, r7
     eb8:	2e d6       	rcall	.+3164   	; 0x1b16 <__floatsisf>
     eba:	2b 01       	movw	r4, r22
     ebc:	3c 01       	movw	r6, r24
     ebe:	80 91 01 03 	lds	r24, 0x0301	; 0x800301 <sc_pad+0x4>
     ec2:	90 91 02 03 	lds	r25, 0x0302	; 0x800302 <sc_pad+0x5>
     ec6:	a0 91 03 03 	lds	r26, 0x0303	; 0x800303 <sc_pad+0x6>
     eca:	b0 91 04 03 	lds	r27, 0x0304	; 0x800304 <sc_pad+0x7>
     ece:	bc 01       	movw	r22, r24
     ed0:	cd 01       	movw	r24, r26
     ed2:	29 81       	ldd	r18, Y+1	; 0x01
     ed4:	3a 81       	ldd	r19, Y+2	; 0x02
     ed6:	4b 81       	ldd	r20, Y+3	; 0x03
     ed8:	5c 81       	ldd	r21, Y+4	; 0x04
     eda:	62 1b       	sub	r22, r18
     edc:	73 0b       	sbc	r23, r19
     ede:	84 0b       	sbc	r24, r20
     ee0:	95 0b       	sbc	r25, r21
     ee2:	19 d6       	rcall	.+3122   	; 0x1b16 <__floatsisf>
     ee4:	9b 01       	movw	r18, r22
     ee6:	ac 01       	movw	r20, r24
     ee8:	c3 01       	movw	r24, r6
     eea:	b2 01       	movw	r22, r4
     eec:	79 d5       	rcall	.+2802   	; 0x19e0 <__divsf3>
     eee:	46 2e       	mov	r4, r22
     ef0:	77 2e       	mov	r7, r23
     ef2:	68 2e       	mov	r6, r24
     ef4:	59 2e       	mov	r5, r25
     ef6:	86 2f       	mov	r24, r22
     ef8:	97 2d       	mov	r25, r7
     efa:	a6 2d       	mov	r26, r6
     efc:	b5 2d       	mov	r27, r5
     efe:	80 93 f0 01 	sts	0x01F0, r24	; 0x8001f0 <user_xscale>
     f02:	90 93 f1 01 	sts	0x01F1, r25	; 0x8001f1 <user_xscale+0x1>
     f06:	a0 93 f2 01 	sts	0x01F2, r26	; 0x8001f2 <user_xscale+0x2>
     f0a:	b0 93 f3 01 	sts	0x01F3, r27	; 0x8001f3 <user_xscale+0x3>
     f0e:	c5 01       	movw	r24, r10
     f10:	b4 01       	movw	r22, r8
     f12:	01 d6       	rcall	.+3074   	; 0x1b16 <__floatsisf>
     f14:	4b 01       	movw	r8, r22
     f16:	5c 01       	movw	r10, r24
     f18:	c7 01       	movw	r24, r14
     f1a:	b6 01       	movw	r22, r12
     f1c:	fc d5       	rcall	.+3064   	; 0x1b16 <__floatsisf>
     f1e:	9b 01       	movw	r18, r22
     f20:	ac 01       	movw	r20, r24
     f22:	c5 01       	movw	r24, r10
     f24:	b4 01       	movw	r22, r8
     f26:	5c d5       	rcall	.+2744   	; 0x19e0 <__divsf3>
     f28:	f6 2e       	mov	r15, r22
     f2a:	e7 2e       	mov	r14, r23
     f2c:	d8 2e       	mov	r13, r24
     f2e:	c9 2e       	mov	r12, r25
     f30:	a7 01       	movw	r20, r14
     f32:	96 01       	movw	r18, r12
     f34:	85 2f       	mov	r24, r21
     f36:	94 2f       	mov	r25, r20
     f38:	a3 2f       	mov	r26, r19
     f3a:	b2 2f       	mov	r27, r18
     f3c:	80 93 ec 01 	sts	0x01EC, r24	; 0x8001ec <user_yscale>
     f40:	90 93 ed 01 	sts	0x01ED, r25	; 0x8001ed <user_yscale+0x1>
     f44:	a0 93 ee 01 	sts	0x01EE, r26	; 0x8001ee <user_yscale+0x2>
     f48:	b0 93 ef 01 	sts	0x01EF, r27	; 0x8001ef <user_yscale+0x3>
     f4c:	6d 81       	ldd	r22, Y+5	; 0x05
     f4e:	7e 81       	ldd	r23, Y+6	; 0x06
     f50:	8f 81       	ldd	r24, Y+7	; 0x07
     f52:	98 85       	ldd	r25, Y+8	; 0x08
     f54:	90 95       	com	r25
     f56:	80 95       	com	r24
     f58:	70 95       	com	r23
     f5a:	61 95       	neg	r22
     f5c:	7f 4f       	sbci	r23, 0xFF	; 255
     f5e:	8f 4f       	sbci	r24, 0xFF	; 255
     f60:	9f 4f       	sbci	r25, 0xFF	; 255
     f62:	d9 d5       	rcall	.+2994   	; 0x1b16 <__floatsisf>
     f64:	d7 01       	movw	r26, r14
     f66:	f6 01       	movw	r30, r12
     f68:	2b 2f       	mov	r18, r27
     f6a:	3a 2f       	mov	r19, r26
     f6c:	4f 2f       	mov	r20, r31
     f6e:	5e 2f       	mov	r21, r30
     f70:	5e d6       	rcall	.+3260   	; 0x1c2e <__mulsf3>
     f72:	9f 93       	push	r25
     f74:	8f 93       	push	r24
     f76:	7f 93       	push	r23
     f78:	6f 93       	push	r22
     f7a:	69 81       	ldd	r22, Y+1	; 0x01
     f7c:	7a 81       	ldd	r23, Y+2	; 0x02
     f7e:	8b 81       	ldd	r24, Y+3	; 0x03
     f80:	9c 81       	ldd	r25, Y+4	; 0x04
     f82:	90 95       	com	r25
     f84:	80 95       	com	r24
     f86:	70 95       	com	r23
     f88:	61 95       	neg	r22
     f8a:	7f 4f       	sbci	r23, 0xFF	; 255
     f8c:	8f 4f       	sbci	r24, 0xFF	; 255
     f8e:	9f 4f       	sbci	r25, 0xFF	; 255
     f90:	c2 d5       	rcall	.+2948   	; 0x1b16 <__floatsisf>
     f92:	d3 01       	movw	r26, r6
     f94:	24 2d       	mov	r18, r4
     f96:	3b 2f       	mov	r19, r27
     f98:	4a 2f       	mov	r20, r26
     f9a:	55 2d       	mov	r21, r5
     f9c:	48 d6       	rcall	.+3216   	; 0x1c2e <__mulsf3>
     f9e:	9f 93       	push	r25
     fa0:	8f 93       	push	r24
     fa2:	7f 93       	push	r23
     fa4:	6f 93       	push	r22
     fa6:	cf 92       	push	r12
     fa8:	df 92       	push	r13
     faa:	ef 92       	push	r14
     fac:	ff 92       	push	r15
     fae:	5f 92       	push	r5
     fb0:	6f 92       	push	r6
     fb2:	7f 92       	push	r7
     fb4:	4f 92       	push	r4
     fb6:	83 ed       	ldi	r24, 0xD3	; 211
     fb8:	90 e0       	ldi	r25, 0x00	; 0
     fba:	9f 93       	push	r25
     fbc:	8f 93       	push	r24
     fbe:	8c d7       	rcall	.+3864   	; 0x1ed8 <printf_P>
     fc0:	0f b6       	in	r0, 0x3f	; 63
     fc2:	f8 94       	cli
     fc4:	de bf       	out	0x3e, r29	; 62
     fc6:	0f be       	out	0x3f, r0	; 63
     fc8:	cd bf       	out	0x3d, r28	; 61
     fca:	28 96       	adiw	r28, 0x08	; 8
     fcc:	0f b6       	in	r0, 0x3f	; 63
     fce:	f8 94       	cli
     fd0:	de bf       	out	0x3e, r29	; 62
     fd2:	0f be       	out	0x3f, r0	; 63
     fd4:	cd bf       	out	0x3d, r28	; 61
     fd6:	df 91       	pop	r29
     fd8:	cf 91       	pop	r28
     fda:	ff 90       	pop	r15
     fdc:	ef 90       	pop	r14
     fde:	df 90       	pop	r13
     fe0:	cf 90       	pop	r12
     fe2:	bf 90       	pop	r11
     fe4:	af 90       	pop	r10
     fe6:	9f 90       	pop	r9
     fe8:	8f 90       	pop	r8
     fea:	7f 90       	pop	r7
     fec:	6f 90       	pop	r6
     fee:	5f 90       	pop	r5
     ff0:	4f 90       	pop	r4
     ff2:	08 95       	ret

00000ff4 <serial_get_rx_buffer_count>:
     ff4:	90 91 f6 01 	lds	r25, 0x01F6	; 0x8001f6 <serial_rx_buffer_tail>
     ff8:	80 91 f7 01 	lds	r24, 0x01F7	; 0x8001f7 <serial_rx_buffer_head>
     ffc:	89 17       	cp	r24, r25
     ffe:	08 f4       	brcc	.+2      	; 0x1002 <serial_get_rx_buffer_count+0xe>
    1000:	80 58       	subi	r24, 0x80	; 128
    1002:	89 1b       	sub	r24, r25
    1004:	08 95       	ret

00001006 <serial_init>:
    1006:	eb e9       	ldi	r30, 0x9B	; 155
    1008:	f0 e0       	ldi	r31, 0x00	; 0
    100a:	80 81       	ld	r24, Z
    100c:	8d 7f       	andi	r24, 0xFD	; 253
    100e:	80 83       	st	Z, r24
    1010:	10 92 98 00 	sts	0x0098, r1	; 0x800098 <__TEXT_REGION_LENGTH__+0x7e0098>
    1014:	87 e6       	ldi	r24, 0x67	; 103
    1016:	80 93 99 00 	sts	0x0099, r24	; 0x800099 <__TEXT_REGION_LENGTH__+0x7e0099>
    101a:	ea e9       	ldi	r30, 0x9A	; 154
    101c:	f0 e0       	ldi	r31, 0x00	; 0
    101e:	80 81       	ld	r24, Z
    1020:	80 61       	ori	r24, 0x10	; 16
    1022:	80 83       	st	Z, r24
    1024:	80 81       	ld	r24, Z
    1026:	88 60       	ori	r24, 0x08	; 8
    1028:	80 83       	st	Z, r24
    102a:	80 81       	ld	r24, Z
    102c:	80 68       	ori	r24, 0x80	; 128
    102e:	80 83       	st	Z, r24
    1030:	08 95       	ret

00001032 <serial_write>:
    1032:	e0 91 f5 01 	lds	r30, 0x01F5	; 0x8001f5 <serial_tx_buffer_head>
    1036:	91 e0       	ldi	r25, 0x01	; 1
    1038:	9e 0f       	add	r25, r30
    103a:	90 34       	cpi	r25, 0x40	; 64
    103c:	09 f4       	brne	.+2      	; 0x1040 <serial_write+0xe>
    103e:	90 e0       	ldi	r25, 0x00	; 0
    1040:	20 91 f4 01 	lds	r18, 0x01F4	; 0x8001f4 <serial_tx_buffer_tail>
    1044:	29 17       	cp	r18, r25
    1046:	e1 f3       	breq	.-8      	; 0x1040 <serial_write+0xe>
    1048:	f0 e0       	ldi	r31, 0x00	; 0
    104a:	e4 5c       	subi	r30, 0xC4	; 196
    104c:	fd 4f       	sbci	r31, 0xFD	; 253
    104e:	80 83       	st	Z, r24
    1050:	90 93 f5 01 	sts	0x01F5, r25	; 0x8001f5 <serial_tx_buffer_head>
    1054:	80 91 9a 00 	lds	r24, 0x009A	; 0x80009a <__TEXT_REGION_LENGTH__+0x7e009a>
    1058:	80 62       	ori	r24, 0x20	; 32
    105a:	80 93 9a 00 	sts	0x009A, r24	; 0x80009a <__TEXT_REGION_LENGTH__+0x7e009a>
    105e:	08 95       	ret

00001060 <__vector_31>:
    1060:	1f 92       	push	r1
    1062:	0f 92       	push	r0
    1064:	0f b6       	in	r0, 0x3f	; 63
    1066:	0f 92       	push	r0
    1068:	11 24       	eor	r1, r1
    106a:	0b b6       	in	r0, 0x3b	; 59
    106c:	0f 92       	push	r0
    106e:	8f 93       	push	r24
    1070:	9f 93       	push	r25
    1072:	ef 93       	push	r30
    1074:	ff 93       	push	r31
    1076:	80 91 f4 01 	lds	r24, 0x01F4	; 0x8001f4 <serial_tx_buffer_tail>
    107a:	90 91 11 01 	lds	r25, 0x0111	; 0x800111 <flow_ctrl>
    107e:	91 30       	cpi	r25, 0x01	; 1
    1080:	29 f4       	brne	.+10     	; 0x108c <__vector_31+0x2c>
    1082:	93 e1       	ldi	r25, 0x13	; 19
    1084:	90 93 9c 00 	sts	0x009C, r25	; 0x80009c <__TEXT_REGION_LENGTH__+0x7e009c>
    1088:	93 e0       	ldi	r25, 0x03	; 3
    108a:	08 c0       	rjmp	.+16     	; 0x109c <__vector_31+0x3c>
    108c:	90 91 11 01 	lds	r25, 0x0111	; 0x800111 <flow_ctrl>
    1090:	92 30       	cpi	r25, 0x02	; 2
    1092:	39 f4       	brne	.+14     	; 0x10a2 <__vector_31+0x42>
    1094:	91 e1       	ldi	r25, 0x11	; 17
    1096:	90 93 9c 00 	sts	0x009C, r25	; 0x80009c <__TEXT_REGION_LENGTH__+0x7e009c>
    109a:	94 e0       	ldi	r25, 0x04	; 4
    109c:	90 93 11 01 	sts	0x0111, r25	; 0x800111 <flow_ctrl>
    10a0:	0d c0       	rjmp	.+26     	; 0x10bc <__vector_31+0x5c>
    10a2:	e8 2f       	mov	r30, r24
    10a4:	f0 e0       	ldi	r31, 0x00	; 0
    10a6:	e4 5c       	subi	r30, 0xC4	; 196
    10a8:	fd 4f       	sbci	r31, 0xFD	; 253
    10aa:	90 81       	ld	r25, Z
    10ac:	90 93 9c 00 	sts	0x009C, r25	; 0x80009c <__TEXT_REGION_LENGTH__+0x7e009c>
    10b0:	8f 5f       	subi	r24, 0xFF	; 255
    10b2:	80 34       	cpi	r24, 0x40	; 64
    10b4:	09 f4       	brne	.+2      	; 0x10b8 <__vector_31+0x58>
    10b6:	80 e0       	ldi	r24, 0x00	; 0
    10b8:	80 93 f4 01 	sts	0x01F4, r24	; 0x8001f4 <serial_tx_buffer_tail>
    10bc:	90 91 f5 01 	lds	r25, 0x01F5	; 0x8001f5 <serial_tx_buffer_head>
    10c0:	89 13       	cpse	r24, r25
    10c2:	05 c0       	rjmp	.+10     	; 0x10ce <__vector_31+0x6e>
    10c4:	80 91 9a 00 	lds	r24, 0x009A	; 0x80009a <__TEXT_REGION_LENGTH__+0x7e009a>
    10c8:	8f 7d       	andi	r24, 0xDF	; 223
    10ca:	80 93 9a 00 	sts	0x009A, r24	; 0x80009a <__TEXT_REGION_LENGTH__+0x7e009a>
    10ce:	ff 91       	pop	r31
    10d0:	ef 91       	pop	r30
    10d2:	9f 91       	pop	r25
    10d4:	8f 91       	pop	r24
    10d6:	0f 90       	pop	r0
    10d8:	0b be       	out	0x3b, r0	; 59
    10da:	0f 90       	pop	r0
    10dc:	0f be       	out	0x3f, r0	; 63
    10de:	0f 90       	pop	r0
    10e0:	1f 90       	pop	r1
    10e2:	18 95       	reti

000010e4 <serial_read>:
    10e4:	cf 93       	push	r28
    10e6:	80 91 f6 01 	lds	r24, 0x01F6	; 0x8001f6 <serial_rx_buffer_tail>
    10ea:	90 91 f7 01 	lds	r25, 0x01F7	; 0x8001f7 <serial_rx_buffer_head>
    10ee:	89 17       	cp	r24, r25
    10f0:	d9 f0       	breq	.+54     	; 0x1128 <__stack+0x29>
    10f2:	e8 2f       	mov	r30, r24
    10f4:	f0 e0       	ldi	r31, 0x00	; 0
    10f6:	e4 58       	subi	r30, 0x84	; 132
    10f8:	fd 4f       	sbci	r31, 0xFD	; 253
    10fa:	c0 81       	ld	r28, Z
    10fc:	8f 5f       	subi	r24, 0xFF	; 255
    10fe:	80 38       	cpi	r24, 0x80	; 128
    1100:	09 f4       	brne	.+2      	; 0x1104 <__stack+0x5>
    1102:	80 e0       	ldi	r24, 0x00	; 0
    1104:	80 93 f6 01 	sts	0x01F6, r24	; 0x8001f6 <serial_rx_buffer_tail>
    1108:	75 df       	rcall	.-278    	; 0xff4 <serial_get_rx_buffer_count>
    110a:	80 32       	cpi	r24, 0x20	; 32
    110c:	78 f4       	brcc	.+30     	; 0x112c <__stack+0x2d>
    110e:	80 91 11 01 	lds	r24, 0x0111	; 0x800111 <flow_ctrl>
    1112:	83 30       	cpi	r24, 0x03	; 3
    1114:	59 f4       	brne	.+22     	; 0x112c <__stack+0x2d>
    1116:	82 e0       	ldi	r24, 0x02	; 2
    1118:	80 93 11 01 	sts	0x0111, r24	; 0x800111 <flow_ctrl>
    111c:	80 91 9a 00 	lds	r24, 0x009A	; 0x80009a <__TEXT_REGION_LENGTH__+0x7e009a>
    1120:	80 62       	ori	r24, 0x20	; 32
    1122:	80 93 9a 00 	sts	0x009A, r24	; 0x80009a <__TEXT_REGION_LENGTH__+0x7e009a>
    1126:	02 c0       	rjmp	.+4      	; 0x112c <__stack+0x2d>
    1128:	8f ef       	ldi	r24, 0xFF	; 255
    112a:	01 c0       	rjmp	.+2      	; 0x112e <__stack+0x2f>
    112c:	8c 2f       	mov	r24, r28
    112e:	cf 91       	pop	r28
    1130:	08 95       	ret

00001132 <__vector_30>:
    1132:	1f 92       	push	r1
    1134:	0f 92       	push	r0
    1136:	0f b6       	in	r0, 0x3f	; 63
    1138:	0f 92       	push	r0
    113a:	11 24       	eor	r1, r1
    113c:	0b b6       	in	r0, 0x3b	; 59
    113e:	0f 92       	push	r0
    1140:	2f 93       	push	r18
    1142:	3f 93       	push	r19
    1144:	4f 93       	push	r20
    1146:	5f 93       	push	r21
    1148:	6f 93       	push	r22
    114a:	7f 93       	push	r23
    114c:	8f 93       	push	r24
    114e:	9f 93       	push	r25
    1150:	af 93       	push	r26
    1152:	bf 93       	push	r27
    1154:	ef 93       	push	r30
    1156:	ff 93       	push	r31
    1158:	90 91 9c 00 	lds	r25, 0x009C	; 0x80009c <__TEXT_REGION_LENGTH__+0x7e009c>
    115c:	e0 91 f7 01 	lds	r30, 0x01F7	; 0x8001f7 <serial_rx_buffer_head>
    1160:	81 e0       	ldi	r24, 0x01	; 1
    1162:	8e 0f       	add	r24, r30
    1164:	80 38       	cpi	r24, 0x80	; 128
    1166:	09 f4       	brne	.+2      	; 0x116a <__vector_30+0x38>
    1168:	80 e0       	ldi	r24, 0x00	; 0
    116a:	20 91 f6 01 	lds	r18, 0x01F6	; 0x8001f6 <serial_rx_buffer_tail>
    116e:	82 17       	cp	r24, r18
    1170:	a9 f0       	breq	.+42     	; 0x119c <__vector_30+0x6a>
    1172:	f0 e0       	ldi	r31, 0x00	; 0
    1174:	e4 58       	subi	r30, 0x84	; 132
    1176:	fd 4f       	sbci	r31, 0xFD	; 253
    1178:	90 83       	st	Z, r25
    117a:	80 93 f7 01 	sts	0x01F7, r24	; 0x8001f7 <serial_rx_buffer_head>
    117e:	3a df       	rcall	.-396    	; 0xff4 <serial_get_rx_buffer_count>
    1180:	80 36       	cpi	r24, 0x60	; 96
    1182:	60 f0       	brcs	.+24     	; 0x119c <__vector_30+0x6a>
    1184:	80 91 11 01 	lds	r24, 0x0111	; 0x800111 <flow_ctrl>
    1188:	84 30       	cpi	r24, 0x04	; 4
    118a:	41 f4       	brne	.+16     	; 0x119c <__vector_30+0x6a>
    118c:	81 e0       	ldi	r24, 0x01	; 1
    118e:	80 93 11 01 	sts	0x0111, r24	; 0x800111 <flow_ctrl>
    1192:	80 91 9a 00 	lds	r24, 0x009A	; 0x80009a <__TEXT_REGION_LENGTH__+0x7e009a>
    1196:	80 62       	ori	r24, 0x20	; 32
    1198:	80 93 9a 00 	sts	0x009A, r24	; 0x80009a <__TEXT_REGION_LENGTH__+0x7e009a>
    119c:	ff 91       	pop	r31
    119e:	ef 91       	pop	r30
    11a0:	bf 91       	pop	r27
    11a2:	af 91       	pop	r26
    11a4:	9f 91       	pop	r25
    11a6:	8f 91       	pop	r24
    11a8:	7f 91       	pop	r23
    11aa:	6f 91       	pop	r22
    11ac:	5f 91       	pop	r21
    11ae:	4f 91       	pop	r20
    11b0:	3f 91       	pop	r19
    11b2:	2f 91       	pop	r18
    11b4:	0f 90       	pop	r0
    11b6:	0b be       	out	0x3b, r0	; 59
    11b8:	0f 90       	pop	r0
    11ba:	0f be       	out	0x3f, r0	; 63
    11bc:	0f 90       	pop	r0
    11be:	1f 90       	pop	r1
    11c0:	18 95       	reti

000011c2 <alloc_cmd>:
    11c2:	90 91 f9 01 	lds	r25, 0x01F9	; 0x8001f9 <cmd_head>
    11c6:	20 91 f8 01 	lds	r18, 0x01F8	; 0x8001f8 <cmd_tail>
    11ca:	92 1b       	sub	r25, r18
    11cc:	90 32       	cpi	r25, 0x20	; 32
    11ce:	10 f0       	brcs	.+4      	; 0x11d4 <alloc_cmd+0x12>
    11d0:	a8 95       	wdr
    11d2:	f7 cf       	rjmp	.-18     	; 0x11c2 <alloc_cmd>
    11d4:	e0 91 f9 01 	lds	r30, 0x01F9	; 0x8001f9 <cmd_head>
    11d8:	ef 71       	andi	r30, 0x1F	; 31
    11da:	95 e0       	ldi	r25, 0x05	; 5
    11dc:	e9 9f       	mul	r30, r25
    11de:	f0 01       	movw	r30, r0
    11e0:	11 24       	eor	r1, r1
    11e2:	e7 58       	subi	r30, 0x87	; 135
    11e4:	fc 4f       	sbci	r31, 0xFC	; 252
    11e6:	80 83       	st	Z, r24
    11e8:	cf 01       	movw	r24, r30
    11ea:	08 95       	ret

000011ec <stepper_jogRelative>:
    11ec:	0f 93       	push	r16
    11ee:	1f 93       	push	r17
    11f0:	cf 93       	push	r28
    11f2:	df 93       	push	r29
    11f4:	8c 01       	movw	r16, r24
    11f6:	eb 01       	movw	r28, r22
    11f8:	80 e0       	ldi	r24, 0x00	; 0
    11fa:	e3 df       	rcall	.-58     	; 0x11c2 <alloc_cmd>
    11fc:	20 91 16 01 	lds	r18, 0x0116	; 0x800116 <loc_x>
    1200:	30 91 17 01 	lds	r19, 0x0117	; 0x800117 <loc_x+0x1>
    1204:	20 0f       	add	r18, r16
    1206:	31 1f       	adc	r19, r17
    1208:	60 91 14 01 	lds	r22, 0x0114	; 0x800114 <loc_y>
    120c:	70 91 15 01 	lds	r23, 0x0115	; 0x800115 <loc_y+0x1>
    1210:	a9 01       	movw	r20, r18
    1212:	53 58       	subi	r21, 0x83	; 131
    1214:	41 30       	cpi	r20, 0x01	; 1
    1216:	5a 4f       	sbci	r21, 0xFA	; 250
    1218:	80 f4       	brcc	.+32     	; 0x123a <stepper_jogRelative+0x4e>
    121a:	6c 0f       	add	r22, r28
    121c:	7d 1f       	adc	r23, r29
    121e:	61 36       	cpi	r22, 0x61	; 97
    1220:	f9 e0       	ldi	r31, 0x09	; 9
    1222:	7f 07       	cpc	r23, r31
    1224:	50 f4       	brcc	.+20     	; 0x123a <stepper_jogRelative+0x4e>
    1226:	fc 01       	movw	r30, r24
    1228:	32 83       	std	Z+2, r19	; 0x02
    122a:	21 83       	std	Z+1, r18	; 0x01
    122c:	74 83       	std	Z+4, r23	; 0x04
    122e:	63 83       	std	Z+3, r22	; 0x03
    1230:	80 91 f9 01 	lds	r24, 0x01F9	; 0x8001f9 <cmd_head>
    1234:	8f 5f       	subi	r24, 0xFF	; 255
    1236:	80 93 f9 01 	sts	0x01F9, r24	; 0x8001f9 <cmd_head>
    123a:	df 91       	pop	r29
    123c:	cf 91       	pop	r28
    123e:	1f 91       	pop	r17
    1240:	0f 91       	pop	r16
    1242:	08 95       	ret

00001244 <stepper_set_origin00>:
    1244:	90 91 f9 01 	lds	r25, 0x01F9	; 0x8001f9 <cmd_head>
    1248:	80 91 f8 01 	lds	r24, 0x01F8	; 0x8001f8 <cmd_tail>
    124c:	98 13       	cpse	r25, r24
    124e:	1c c0       	rjmp	.+56     	; 0x1288 <stepper_set_origin00+0x44>
    1250:	80 91 16 01 	lds	r24, 0x0116	; 0x800116 <loc_x>
    1254:	90 91 17 01 	lds	r25, 0x0117	; 0x800117 <loc_x+0x1>
    1258:	97 fd       	sbrc	r25, 7
    125a:	16 c0       	rjmp	.+44     	; 0x1288 <stepper_set_origin00+0x44>
    125c:	80 91 14 01 	lds	r24, 0x0114	; 0x800114 <loc_y>
    1260:	90 91 15 01 	lds	r25, 0x0115	; 0x800115 <loc_y+0x1>
    1264:	97 fd       	sbrc	r25, 7
    1266:	10 c0       	rjmp	.+32     	; 0x1288 <stepper_set_origin00+0x44>
    1268:	80 91 16 01 	lds	r24, 0x0116	; 0x800116 <loc_x>
    126c:	90 91 17 01 	lds	r25, 0x0117	; 0x800117 <loc_x+0x1>
    1270:	90 93 0e 02 	sts	0x020E, r25	; 0x80020e <ofs_x+0x1>
    1274:	80 93 0d 02 	sts	0x020D, r24	; 0x80020d <ofs_x>
    1278:	80 91 14 01 	lds	r24, 0x0114	; 0x800114 <loc_y>
    127c:	90 91 15 01 	lds	r25, 0x0115	; 0x800115 <loc_y+0x1>
    1280:	90 93 0c 02 	sts	0x020C, r25	; 0x80020c <ofs_y+0x1>
    1284:	80 93 0b 02 	sts	0x020B, r24	; 0x80020b <ofs_y>
    1288:	08 95       	ret

0000128a <stepper_off>:
    128a:	1b ba       	out	0x1b, r1	; 27
    128c:	15 ba       	out	0x15, r1	; 21
    128e:	08 95       	ret

00001290 <stepper_draw>:
    1290:	0f 93       	push	r16
    1292:	1f 93       	push	r17
    1294:	cf 93       	push	r28
    1296:	df 93       	push	r29
    1298:	8c 01       	movw	r16, r24
    129a:	eb 01       	movw	r28, r22
    129c:	81 e0       	ldi	r24, 0x01	; 1
    129e:	91 df       	rcall	.-222    	; 0x11c2 <alloc_cmd>
    12a0:	20 91 0d 02 	lds	r18, 0x020D	; 0x80020d <ofs_x>
    12a4:	30 91 0e 02 	lds	r19, 0x020E	; 0x80020e <ofs_x+0x1>
    12a8:	20 0f       	add	r18, r16
    12aa:	31 1f       	adc	r19, r17
    12ac:	60 91 0b 02 	lds	r22, 0x020B	; 0x80020b <ofs_y>
    12b0:	70 91 0c 02 	lds	r23, 0x020C	; 0x80020c <ofs_y+0x1>
    12b4:	21 30       	cpi	r18, 0x01	; 1
    12b6:	4d e7       	ldi	r20, 0x7D	; 125
    12b8:	34 07       	cpc	r19, r20
    12ba:	80 f4       	brcc	.+32     	; 0x12dc <stepper_draw+0x4c>
    12bc:	6c 0f       	add	r22, r28
    12be:	7d 1f       	adc	r23, r29
    12c0:	61 36       	cpi	r22, 0x61	; 97
    12c2:	e9 e0       	ldi	r30, 0x09	; 9
    12c4:	7e 07       	cpc	r23, r30
    12c6:	50 f4       	brcc	.+20     	; 0x12dc <stepper_draw+0x4c>
    12c8:	fc 01       	movw	r30, r24
    12ca:	32 83       	std	Z+2, r19	; 0x02
    12cc:	21 83       	std	Z+1, r18	; 0x01
    12ce:	74 83       	std	Z+4, r23	; 0x04
    12d0:	63 83       	std	Z+3, r22	; 0x03
    12d2:	80 91 f9 01 	lds	r24, 0x01F9	; 0x8001f9 <cmd_head>
    12d6:	8f 5f       	subi	r24, 0xFF	; 255
    12d8:	80 93 f9 01 	sts	0x01F9, r24	; 0x8001f9 <cmd_head>
    12dc:	df 91       	pop	r29
    12de:	cf 91       	pop	r28
    12e0:	1f 91       	pop	r17
    12e2:	0f 91       	pop	r16
    12e4:	08 95       	ret

000012e6 <stepper_move>:
    12e6:	0f 93       	push	r16
    12e8:	1f 93       	push	r17
    12ea:	cf 93       	push	r28
    12ec:	df 93       	push	r29
    12ee:	8c 01       	movw	r16, r24
    12f0:	eb 01       	movw	r28, r22
    12f2:	80 e0       	ldi	r24, 0x00	; 0
    12f4:	66 df       	rcall	.-308    	; 0x11c2 <alloc_cmd>
    12f6:	20 91 0d 02 	lds	r18, 0x020D	; 0x80020d <ofs_x>
    12fa:	30 91 0e 02 	lds	r19, 0x020E	; 0x80020e <ofs_x+0x1>
    12fe:	20 0f       	add	r18, r16
    1300:	31 1f       	adc	r19, r17
    1302:	60 91 0b 02 	lds	r22, 0x020B	; 0x80020b <ofs_y>
    1306:	70 91 0c 02 	lds	r23, 0x020C	; 0x80020c <ofs_y+0x1>
    130a:	a9 01       	movw	r20, r18
    130c:	46 50       	subi	r20, 0x06	; 6
    130e:	5f 4f       	sbci	r21, 0xFF	; 255
    1310:	4b 3f       	cpi	r20, 0xFB	; 251
    1312:	5d 47       	sbci	r21, 0x7D	; 125
    1314:	80 f4       	brcc	.+32     	; 0x1336 <stepper_move+0x50>
    1316:	6c 0f       	add	r22, r28
    1318:	7d 1f       	adc	r23, r29
    131a:	61 36       	cpi	r22, 0x61	; 97
    131c:	f9 e0       	ldi	r31, 0x09	; 9
    131e:	7f 07       	cpc	r23, r31
    1320:	50 f4       	brcc	.+20     	; 0x1336 <stepper_move+0x50>
    1322:	fc 01       	movw	r30, r24
    1324:	32 83       	std	Z+2, r19	; 0x02
    1326:	21 83       	std	Z+1, r18	; 0x01
    1328:	74 83       	std	Z+4, r23	; 0x04
    132a:	63 83       	std	Z+3, r22	; 0x03
    132c:	80 91 f9 01 	lds	r24, 0x01F9	; 0x8001f9 <cmd_head>
    1330:	8f 5f       	subi	r24, 0xFF	; 255
    1332:	80 93 f9 01 	sts	0x01F9, r24	; 0x8001f9 <cmd_head>
    1336:	df 91       	pop	r29
    1338:	cf 91       	pop	r28
    133a:	1f 91       	pop	r17
    133c:	0f 91       	pop	r16
    133e:	08 95       	ret

00001340 <stepper_jog_manual>:
    1340:	9c 01       	movw	r18, r24
    1342:	cb 01       	movw	r24, r22
    1344:	50 91 f9 01 	lds	r21, 0x01F9	; 0x8001f9 <cmd_head>
    1348:	40 91 f8 01 	lds	r20, 0x01F8	; 0x8001f8 <cmd_tail>
    134c:	54 13       	cpse	r21, r20
    134e:	1f c0       	rjmp	.+62     	; 0x138e <stepper_jog_manual+0x4e>
    1350:	2e 31       	cpi	r18, 0x1E	; 30
    1352:	31 05       	cpc	r19, r1
    1354:	c9 f0       	breq	.+50     	; 0x1388 <stepper_jog_manual+0x48>
    1356:	24 f4       	brge	.+8      	; 0x1360 <stepper_jog_manual+0x20>
    1358:	2e 30       	cpi	r18, 0x0E	; 14
    135a:	31 05       	cpc	r19, r1
    135c:	89 f0       	breq	.+34     	; 0x1380 <stepper_jog_manual+0x40>
    135e:	08 95       	ret
    1360:	2e 33       	cpi	r18, 0x3E	; 62
    1362:	31 05       	cpc	r19, r1
    1364:	21 f0       	breq	.+8      	; 0x136e <stepper_jog_manual+0x2e>
    1366:	2e 34       	cpi	r18, 0x4E	; 78
    1368:	31 05       	cpc	r19, r1
    136a:	21 f0       	breq	.+8      	; 0x1374 <stepper_jog_manual+0x34>
    136c:	08 95       	ret
    136e:	60 e0       	ldi	r22, 0x00	; 0
    1370:	70 e0       	ldi	r23, 0x00	; 0
    1372:	0c c0       	rjmp	.+24     	; 0x138c <stepper_jog_manual+0x4c>
    1374:	60 e0       	ldi	r22, 0x00	; 0
    1376:	70 e0       	ldi	r23, 0x00	; 0
    1378:	91 95       	neg	r25
    137a:	81 95       	neg	r24
    137c:	91 09       	sbc	r25, r1
    137e:	06 c0       	rjmp	.+12     	; 0x138c <stepper_jog_manual+0x4c>
    1380:	66 27       	eor	r22, r22
    1382:	77 27       	eor	r23, r23
    1384:	68 1b       	sub	r22, r24
    1386:	79 0b       	sbc	r23, r25
    1388:	80 e0       	ldi	r24, 0x00	; 0
    138a:	90 e0       	ldi	r25, 0x00	; 0
    138c:	2f cf       	rjmp	.-418    	; 0x11ec <stepper_jogRelative>
    138e:	08 95       	ret

00001390 <stepper_load_paper>:
    1390:	80 91 14 01 	lds	r24, 0x0114	; 0x800114 <loc_y>
    1394:	90 91 15 01 	lds	r25, 0x0115	; 0x800115 <loc_y+0x1>
    1398:	97 fd       	sbrc	r25, 7
    139a:	18 c0       	rjmp	.+48     	; 0x13cc <stepper_load_paper+0x3c>
    139c:	80 91 16 01 	lds	r24, 0x0116	; 0x800116 <loc_x>
    13a0:	90 91 17 01 	lds	r25, 0x0117	; 0x800117 <loc_x+0x1>
    13a4:	97 ff       	sbrs	r25, 7
    13a6:	12 c0       	rjmp	.+36     	; 0x13cc <stepper_load_paper+0x3c>
    13a8:	86 e0       	ldi	r24, 0x06	; 6
    13aa:	9f ef       	ldi	r25, 0xFF	; 255
    13ac:	90 93 17 01 	sts	0x0117, r25	; 0x800117 <loc_x+0x1>
    13b0:	80 93 16 01 	sts	0x0116, r24	; 0x800116 <loc_x>
    13b4:	60 91 14 01 	lds	r22, 0x0114	; 0x800114 <loc_y>
    13b8:	70 91 15 01 	lds	r23, 0x0115	; 0x800115 <loc_y+0x1>
    13bc:	80 e0       	ldi	r24, 0x00	; 0
    13be:	90 e0       	ldi	r25, 0x00	; 0
    13c0:	92 df       	rcall	.-220    	; 0x12e6 <stepper_move>
    13c2:	60 e0       	ldi	r22, 0x00	; 0
    13c4:	70 e0       	ldi	r23, 0x00	; 0
    13c6:	80 e0       	ldi	r24, 0x00	; 0
    13c8:	90 e0       	ldi	r25, 0x00	; 0
    13ca:	8d cf       	rjmp	.-230    	; 0x12e6 <stepper_move>
    13cc:	08 95       	ret

000013ce <stepper_unload_paper>:
    13ce:	60 91 0b 02 	lds	r22, 0x020B	; 0x80020b <ofs_y>
    13d2:	70 91 0c 02 	lds	r23, 0x020C	; 0x80020c <ofs_y+0x1>
    13d6:	20 91 0d 02 	lds	r18, 0x020D	; 0x80020d <ofs_x>
    13da:	30 91 0e 02 	lds	r19, 0x020E	; 0x80020e <ofs_x+0x1>
    13de:	71 95       	neg	r23
    13e0:	61 95       	neg	r22
    13e2:	71 09       	sbc	r23, r1
    13e4:	86 e0       	ldi	r24, 0x06	; 6
    13e6:	9f ef       	ldi	r25, 0xFF	; 255
    13e8:	82 1b       	sub	r24, r18
    13ea:	93 0b       	sbc	r25, r19
    13ec:	7c cf       	rjmp	.-264    	; 0x12e6 <stepper_move>

000013ee <pen_up>:
    13ee:	1a 9b       	sbis	0x03, 2	; 3
    13f0:	06 c0       	rjmp	.+12     	; 0x13fe <pen_up+0x10>
    13f2:	82 e3       	ldi	r24, 0x32	; 50
    13f4:	90 e0       	ldi	r25, 0x00	; 0
    13f6:	90 93 fd 01 	sts	0x01FD, r25	; 0x8001fd <step_delay+0x1>
    13fa:	80 93 fc 01 	sts	0x01FC, r24	; 0x8001fc <step_delay>
    13fe:	1a 98       	cbi	0x03, 2	; 3
    1400:	08 95       	ret

00001402 <stepper_home>:
    1402:	90 91 f9 01 	lds	r25, 0x01F9	; 0x8001f9 <cmd_head>
    1406:	80 91 f8 01 	lds	r24, 0x01F8	; 0x8001f8 <cmd_tail>
    140a:	98 13       	cpse	r25, r24
    140c:	11 c0       	rjmp	.+34     	; 0x1430 <stepper_home+0x2e>
    140e:	ef df       	rcall	.-34     	; 0x13ee <pen_up>
    1410:	8c e9       	ldi	r24, 0x9C	; 156
    1412:	9f ef       	ldi	r25, 0xFF	; 255
    1414:	90 93 15 01 	sts	0x0115, r25	; 0x800115 <loc_y+0x1>
    1418:	80 93 14 01 	sts	0x0114, r24	; 0x800114 <loc_y>
    141c:	86 e0       	ldi	r24, 0x06	; 6
    141e:	9f ef       	ldi	r25, 0xFF	; 255
    1420:	90 93 17 01 	sts	0x0117, r25	; 0x800117 <loc_x+0x1>
    1424:	80 93 16 01 	sts	0x0116, r24	; 0x800116 <loc_x>
    1428:	10 92 fb 01 	sts	0x01FB, r1	; 0x8001fb <ActionState+0x1>
    142c:	10 92 fa 01 	sts	0x01FA, r1	; 0x8001fa <ActionState>
    1430:	08 95       	ret

00001432 <pen_down>:
    1432:	83 b1       	in	r24, 0x03	; 3
    1434:	20 91 16 01 	lds	r18, 0x0116	; 0x800116 <loc_x>
    1438:	30 91 17 01 	lds	r19, 0x0117	; 0x800117 <loc_x+0x1>
    143c:	37 fd       	sbrc	r19, 7
    143e:	0f c0       	rjmp	.+30     	; 0x145e <pen_down+0x2c>
    1440:	20 91 14 01 	lds	r18, 0x0114	; 0x800114 <loc_y>
    1444:	30 91 15 01 	lds	r19, 0x0115	; 0x800115 <loc_y+0x1>
    1448:	37 fd       	sbrc	r19, 7
    144a:	09 c0       	rjmp	.+18     	; 0x145e <pen_down+0x2c>
    144c:	82 fd       	sbrc	r24, 2
    144e:	07 c0       	rjmp	.+14     	; 0x145e <pen_down+0x2c>
    1450:	1a 9a       	sbi	0x03, 2	; 3
    1452:	82 e3       	ldi	r24, 0x32	; 50
    1454:	90 e0       	ldi	r25, 0x00	; 0
    1456:	90 93 fd 01 	sts	0x01FD, r25	; 0x8001fd <step_delay+0x1>
    145a:	80 93 fc 01 	sts	0x01FC, r24	; 0x8001fc <step_delay>
    145e:	08 95       	ret

00001460 <do_next_command>:
    1460:	cf 93       	push	r28
    1462:	df 93       	push	r29
    1464:	90 91 f9 01 	lds	r25, 0x01F9	; 0x8001f9 <cmd_head>
    1468:	80 91 f8 01 	lds	r24, 0x01F8	; 0x8001f8 <cmd_tail>
    146c:	98 17       	cp	r25, r24
    146e:	09 f4       	brne	.+2      	; 0x1472 <do_next_command+0x12>
    1470:	b8 c0       	rjmp	.+368    	; 0x15e2 <do_next_command+0x182>
    1472:	e0 91 f8 01 	lds	r30, 0x01F8	; 0x8001f8 <cmd_tail>
    1476:	81 e0       	ldi	r24, 0x01	; 1
    1478:	8e 0f       	add	r24, r30
    147a:	80 93 f8 01 	sts	0x01F8, r24	; 0x8001f8 <cmd_tail>
    147e:	ef 71       	andi	r30, 0x1F	; 31
    1480:	ce 2f       	mov	r28, r30
    1482:	d0 e0       	ldi	r29, 0x00	; 0
    1484:	25 e0       	ldi	r18, 0x05	; 5
    1486:	e2 9f       	mul	r30, r18
    1488:	f0 01       	movw	r30, r0
    148a:	11 24       	eor	r1, r1
    148c:	e7 58       	subi	r30, 0x87	; 135
    148e:	fc 4f       	sbci	r31, 0xFC	; 252
    1490:	80 81       	ld	r24, Z
    1492:	82 30       	cpi	r24, 0x02	; 2
    1494:	09 f4       	brne	.+2      	; 0x1498 <do_next_command+0x38>
    1496:	a2 c0       	rjmp	.+324    	; 0x15dc <do_next_command+0x17c>
    1498:	38 f0       	brcs	.+14     	; 0x14a8 <do_next_command+0x48>
    149a:	83 30       	cpi	r24, 0x03	; 3
    149c:	09 f0       	breq	.+2      	; 0x14a0 <do_next_command+0x40>
    149e:	a1 c0       	rjmp	.+322    	; 0x15e2 <do_next_command+0x182>
    14a0:	81 81       	ldd	r24, Z+1	; 0x01
    14a2:	92 81       	ldd	r25, Z+2	; 0x02
    14a4:	57 d2       	rcall	.+1198   	; 0x1954 <timer_set_pen_pressure>
    14a6:	9d c0       	rjmp	.+314    	; 0x15e2 <do_next_command+0x182>
    14a8:	81 11       	cpse	r24, r1
    14aa:	02 c0       	rjmp	.+4      	; 0x14b0 <do_next_command+0x50>
    14ac:	a0 df       	rcall	.-192    	; 0x13ee <pen_up>
    14ae:	01 c0       	rjmp	.+2      	; 0x14b2 <do_next_command+0x52>
    14b0:	c0 df       	rcall	.-128    	; 0x1432 <pen_down>
    14b2:	85 e0       	ldi	r24, 0x05	; 5
    14b4:	8c 9f       	mul	r24, r28
    14b6:	f0 01       	movw	r30, r0
    14b8:	8d 9f       	mul	r24, r29
    14ba:	f0 0d       	add	r31, r0
    14bc:	11 24       	eor	r1, r1
    14be:	e7 58       	subi	r30, 0x87	; 135
    14c0:	fc 4f       	sbci	r31, 0xFC	; 252
    14c2:	41 81       	ldd	r20, Z+1	; 0x01
    14c4:	52 81       	ldd	r21, Z+2	; 0x02
    14c6:	80 91 16 01 	lds	r24, 0x0116	; 0x800116 <loc_x>
    14ca:	90 91 17 01 	lds	r25, 0x0117	; 0x800117 <loc_x+0x1>
    14ce:	48 17       	cp	r20, r24
    14d0:	59 07       	cpc	r21, r25
    14d2:	51 f4       	brne	.+20     	; 0x14e8 <do_next_command+0x88>
    14d4:	80 91 14 01 	lds	r24, 0x0114	; 0x800114 <loc_y>
    14d8:	90 91 15 01 	lds	r25, 0x0115	; 0x800115 <loc_y+0x1>
    14dc:	23 81       	ldd	r18, Z+3	; 0x03
    14de:	34 81       	ldd	r19, Z+4	; 0x04
    14e0:	28 17       	cp	r18, r24
    14e2:	39 07       	cpc	r19, r25
    14e4:	09 f4       	brne	.+2      	; 0x14e8 <do_next_command+0x88>
    14e6:	7d c0       	rjmp	.+250    	; 0x15e2 <do_next_command+0x182>
    14e8:	85 e0       	ldi	r24, 0x05	; 5
    14ea:	8c 9f       	mul	r24, r28
    14ec:	f0 01       	movw	r30, r0
    14ee:	8d 9f       	mul	r24, r29
    14f0:	f0 0d       	add	r31, r0
    14f2:	11 24       	eor	r1, r1
    14f4:	e7 58       	subi	r30, 0x87	; 135
    14f6:	fc 4f       	sbci	r31, 0xFC	; 252
    14f8:	63 81       	ldd	r22, Z+3	; 0x03
    14fa:	74 81       	ldd	r23, Z+4	; 0x04
    14fc:	80 91 16 01 	lds	r24, 0x0116	; 0x800116 <loc_x>
    1500:	90 91 17 01 	lds	r25, 0x0117	; 0x800117 <loc_x+0x1>
    1504:	84 17       	cp	r24, r20
    1506:	95 07       	cpc	r25, r21
    1508:	7c f4       	brge	.+30     	; 0x1528 <do_next_command+0xc8>
    150a:	81 e0       	ldi	r24, 0x01	; 1
    150c:	90 e0       	ldi	r25, 0x00	; 0
    150e:	90 93 07 02 	sts	0x0207, r25	; 0x800207 <b+0x9>
    1512:	80 93 06 02 	sts	0x0206, r24	; 0x800206 <b+0x8>
    1516:	80 91 16 01 	lds	r24, 0x0116	; 0x800116 <loc_x>
    151a:	90 91 17 01 	lds	r25, 0x0117	; 0x800117 <loc_x+0x1>
    151e:	9a 01       	movw	r18, r20
    1520:	28 1b       	sub	r18, r24
    1522:	39 0b       	sbc	r19, r25
    1524:	c9 01       	movw	r24, r18
    1526:	0c c0       	rjmp	.+24     	; 0x1540 <do_next_command+0xe0>
    1528:	8f ef       	ldi	r24, 0xFF	; 255
    152a:	9f ef       	ldi	r25, 0xFF	; 255
    152c:	90 93 07 02 	sts	0x0207, r25	; 0x800207 <b+0x9>
    1530:	80 93 06 02 	sts	0x0206, r24	; 0x800206 <b+0x8>
    1534:	80 91 16 01 	lds	r24, 0x0116	; 0x800116 <loc_x>
    1538:	90 91 17 01 	lds	r25, 0x0117	; 0x800117 <loc_x+0x1>
    153c:	84 1b       	sub	r24, r20
    153e:	95 0b       	sbc	r25, r21
    1540:	20 91 14 01 	lds	r18, 0x0114	; 0x800114 <loc_y>
    1544:	30 91 15 01 	lds	r19, 0x0115	; 0x800115 <loc_y+0x1>
    1548:	26 17       	cp	r18, r22
    154a:	37 07       	cpc	r19, r23
    154c:	7c f4       	brge	.+30     	; 0x156c <do_next_command+0x10c>
    154e:	21 e0       	ldi	r18, 0x01	; 1
    1550:	30 e0       	ldi	r19, 0x00	; 0
    1552:	30 93 09 02 	sts	0x0209, r19	; 0x800209 <b+0xb>
    1556:	20 93 08 02 	sts	0x0208, r18	; 0x800208 <b+0xa>
    155a:	20 91 14 01 	lds	r18, 0x0114	; 0x800114 <loc_y>
    155e:	30 91 15 01 	lds	r19, 0x0115	; 0x800115 <loc_y+0x1>
    1562:	ab 01       	movw	r20, r22
    1564:	42 1b       	sub	r20, r18
    1566:	53 0b       	sbc	r21, r19
    1568:	9a 01       	movw	r18, r20
    156a:	0c c0       	rjmp	.+24     	; 0x1584 <do_next_command+0x124>
    156c:	2f ef       	ldi	r18, 0xFF	; 255
    156e:	3f ef       	ldi	r19, 0xFF	; 255
    1570:	30 93 09 02 	sts	0x0209, r19	; 0x800209 <b+0xb>
    1574:	20 93 08 02 	sts	0x0208, r18	; 0x800208 <b+0xa>
    1578:	20 91 14 01 	lds	r18, 0x0114	; 0x800114 <loc_y>
    157c:	30 91 15 01 	lds	r19, 0x0115	; 0x800115 <loc_y+0x1>
    1580:	26 1b       	sub	r18, r22
    1582:	37 0b       	sbc	r19, r23
    1584:	28 17       	cp	r18, r24
    1586:	39 07       	cpc	r19, r25
    1588:	5c f4       	brge	.+22     	; 0x15a0 <do_next_command+0x140>
    158a:	10 92 0a 02 	sts	0x020A, r1	; 0x80020a <b+0xc>
    158e:	90 93 01 02 	sts	0x0201, r25	; 0x800201 <b+0x3>
    1592:	80 93 00 02 	sts	0x0200, r24	; 0x800200 <b+0x2>
    1596:	30 93 03 02 	sts	0x0203, r19	; 0x800203 <b+0x5>
    159a:	20 93 02 02 	sts	0x0202, r18	; 0x800202 <b+0x4>
    159e:	0b c0       	rjmp	.+22     	; 0x15b6 <do_next_command+0x156>
    15a0:	41 e0       	ldi	r20, 0x01	; 1
    15a2:	40 93 0a 02 	sts	0x020A, r20	; 0x80020a <b+0xc>
    15a6:	30 93 01 02 	sts	0x0201, r19	; 0x800201 <b+0x3>
    15aa:	20 93 00 02 	sts	0x0200, r18	; 0x800200 <b+0x2>
    15ae:	90 93 03 02 	sts	0x0203, r25	; 0x800203 <b+0x5>
    15b2:	80 93 02 02 	sts	0x0202, r24	; 0x800202 <b+0x4>
    15b6:	10 92 ff 01 	sts	0x01FF, r1	; 0x8001ff <b+0x1>
    15ba:	10 92 fe 01 	sts	0x01FE, r1	; 0x8001fe <b>
    15be:	80 91 00 02 	lds	r24, 0x0200	; 0x800200 <b+0x2>
    15c2:	90 91 01 02 	lds	r25, 0x0201	; 0x800201 <b+0x3>
    15c6:	97 fd       	sbrc	r25, 7
    15c8:	01 96       	adiw	r24, 0x01	; 1
    15ca:	95 95       	asr	r25
    15cc:	87 95       	ror	r24
    15ce:	90 93 05 02 	sts	0x0205, r25	; 0x800205 <b+0x7>
    15d2:	80 93 04 02 	sts	0x0204, r24	; 0x800204 <b+0x6>
    15d6:	84 e0       	ldi	r24, 0x04	; 4
    15d8:	90 e0       	ldi	r25, 0x00	; 0
    15da:	05 c0       	rjmp	.+10     	; 0x15e6 <do_next_command+0x186>
    15dc:	81 81       	ldd	r24, Z+1	; 0x01
    15de:	92 81       	ldd	r25, Z+2	; 0x02
    15e0:	95 d1       	rcall	.+810    	; 0x190c <timer_set_stepper_speed>
    15e2:	83 e0       	ldi	r24, 0x03	; 3
    15e4:	90 e0       	ldi	r25, 0x00	; 0
    15e6:	df 91       	pop	r29
    15e8:	cf 91       	pop	r28
    15ea:	08 95       	ret

000015ec <stepper_tick>:
    15ec:	80 91 fc 01 	lds	r24, 0x01FC	; 0x8001fc <step_delay>
    15f0:	90 91 fd 01 	lds	r25, 0x01FD	; 0x8001fd <step_delay+0x1>
    15f4:	00 97       	sbiw	r24, 0x00	; 0
    15f6:	31 f0       	breq	.+12     	; 0x1604 <stepper_tick+0x18>
    15f8:	01 97       	sbiw	r24, 0x01	; 1
    15fa:	90 93 fd 01 	sts	0x01FD, r25	; 0x8001fd <step_delay+0x1>
    15fe:	80 93 fc 01 	sts	0x01FC, r24	; 0x8001fc <step_delay>
    1602:	08 95       	ret
    1604:	d2 d8       	rcall	.-3676   	; 0x7aa <keypad_stop_pressed>
    1606:	88 23       	and	r24, r24
    1608:	61 f0       	breq	.+24     	; 0x1622 <stepper_tick+0x36>
    160a:	83 e0       	ldi	r24, 0x03	; 3
    160c:	90 e0       	ldi	r25, 0x00	; 0
    160e:	90 93 fb 01 	sts	0x01FB, r25	; 0x8001fb <ActionState+0x1>
    1612:	80 93 fa 01 	sts	0x01FA, r24	; 0x8001fa <ActionState>
    1616:	80 91 f9 01 	lds	r24, 0x01F9	; 0x8001f9 <cmd_head>
    161a:	80 93 f8 01 	sts	0x01F8, r24	; 0x8001f8 <cmd_tail>
    161e:	e7 de       	rcall	.-562    	; 0x13ee <pen_up>
    1620:	34 de       	rcall	.-920    	; 0x128a <stepper_off>
    1622:	80 91 fa 01 	lds	r24, 0x01FA	; 0x8001fa <ActionState>
    1626:	90 91 fb 01 	lds	r25, 0x01FB	; 0x8001fb <ActionState+0x1>
    162a:	82 30       	cpi	r24, 0x02	; 2
    162c:	91 05       	cpc	r25, r1
    162e:	51 f1       	breq	.+84     	; 0x1684 <stepper_tick+0x98>
    1630:	30 f4       	brcc	.+12     	; 0x163e <stepper_tick+0x52>
    1632:	00 97       	sbiw	r24, 0x00	; 0
    1634:	59 f0       	breq	.+22     	; 0x164c <stepper_tick+0x60>
    1636:	81 30       	cpi	r24, 0x01	; 1
    1638:	91 05       	cpc	r25, r1
    163a:	89 f0       	breq	.+34     	; 0x165e <stepper_tick+0x72>
    163c:	a9 c0       	rjmp	.+338    	; 0x1790 <stepper_tick+0x1a4>
    163e:	83 30       	cpi	r24, 0x03	; 3
    1640:	91 05       	cpc	r25, r1
    1642:	d9 f1       	breq	.+118    	; 0x16ba <stepper_tick+0xce>
    1644:	04 97       	sbiw	r24, 0x04	; 4
    1646:	09 f4       	brne	.+2      	; 0x164a <stepper_tick+0x5e>
    1648:	40 c0       	rjmp	.+128    	; 0x16ca <stepper_tick+0xde>
    164a:	a2 c0       	rjmp	.+324    	; 0x1790 <stepper_tick+0x1a4>
    164c:	80 91 14 01 	lds	r24, 0x0114	; 0x800114 <loc_y>
    1650:	90 91 15 01 	lds	r25, 0x0115	; 0x800115 <loc_y+0x1>
    1654:	97 fd       	sbrc	r25, 7
    1656:	1e c0       	rjmp	.+60     	; 0x1694 <stepper_tick+0xa8>
    1658:	81 e0       	ldi	r24, 0x01	; 1
    165a:	90 e0       	ldi	r25, 0x00	; 0
    165c:	95 c0       	rjmp	.+298    	; 0x1788 <stepper_tick+0x19c>
    165e:	90 93 fd 01 	sts	0x01FD, r25	; 0x8001fd <step_delay+0x1>
    1662:	80 93 fc 01 	sts	0x01FC, r24	; 0x8001fc <step_delay>
    1666:	81 9b       	sbis	0x10, 1	; 16
    1668:	0a c0       	rjmp	.+20     	; 0x167e <stepper_tick+0x92>
    166a:	80 91 14 01 	lds	r24, 0x0114	; 0x800114 <loc_y>
    166e:	90 91 15 01 	lds	r25, 0x0115	; 0x800115 <loc_y+0x1>
    1672:	01 97       	sbiw	r24, 0x01	; 1
    1674:	90 93 15 01 	sts	0x0115, r25	; 0x800115 <loc_y+0x1>
    1678:	80 93 14 01 	sts	0x0114, r24	; 0x800114 <loc_y>
    167c:	89 c0       	rjmp	.+274    	; 0x1790 <stepper_tick+0x1a4>
    167e:	82 e0       	ldi	r24, 0x02	; 2
    1680:	90 e0       	ldi	r25, 0x00	; 0
    1682:	82 c0       	rjmp	.+260    	; 0x1788 <stepper_tick+0x19c>
    1684:	84 e0       	ldi	r24, 0x04	; 4
    1686:	90 e0       	ldi	r25, 0x00	; 0
    1688:	90 93 fd 01 	sts	0x01FD, r25	; 0x8001fd <step_delay+0x1>
    168c:	80 93 fc 01 	sts	0x01FC, r24	; 0x8001fc <step_delay>
    1690:	81 99       	sbic	0x10, 1	; 16
    1692:	06 c0       	rjmp	.+12     	; 0x16a0 <stepper_tick+0xb4>
    1694:	80 91 14 01 	lds	r24, 0x0114	; 0x800114 <loc_y>
    1698:	90 91 15 01 	lds	r25, 0x0115	; 0x800115 <loc_y+0x1>
    169c:	01 96       	adiw	r24, 0x01	; 1
    169e:	ea cf       	rjmp	.-44     	; 0x1674 <stepper_tick+0x88>
    16a0:	10 92 15 01 	sts	0x0115, r1	; 0x800115 <loc_y+0x1>
    16a4:	10 92 14 01 	sts	0x0114, r1	; 0x800114 <loc_y>
    16a8:	10 92 0c 02 	sts	0x020C, r1	; 0x80020c <ofs_y+0x1>
    16ac:	10 92 0b 02 	sts	0x020B, r1	; 0x80020b <ofs_y>
    16b0:	10 92 0e 02 	sts	0x020E, r1	; 0x80020e <ofs_x+0x1>
    16b4:	10 92 0d 02 	sts	0x020D, r1	; 0x80020d <ofs_x>
    16b8:	65 c0       	rjmp	.+202    	; 0x1784 <stepper_tick+0x198>
    16ba:	d2 de       	rcall	.-604    	; 0x1460 <do_next_command>
    16bc:	90 93 fb 01 	sts	0x01FB, r25	; 0x8001fb <ActionState+0x1>
    16c0:	80 93 fa 01 	sts	0x01FA, r24	; 0x8001fa <ActionState>
    16c4:	03 97       	sbiw	r24, 0x03	; 3
    16c6:	09 f4       	brne	.+2      	; 0x16ca <stepper_tick+0xde>
    16c8:	63 c0       	rjmp	.+198    	; 0x1790 <stepper_tick+0x1a4>
    16ca:	20 91 fe 01 	lds	r18, 0x01FE	; 0x8001fe <b>
    16ce:	30 91 ff 01 	lds	r19, 0x01FF	; 0x8001ff <b+0x1>
    16d2:	40 91 00 02 	lds	r20, 0x0200	; 0x800200 <b+0x2>
    16d6:	50 91 01 02 	lds	r21, 0x0201	; 0x800201 <b+0x3>
    16da:	24 17       	cp	r18, r20
    16dc:	35 07       	cpc	r19, r21
    16de:	0c f0       	brlt	.+2      	; 0x16e2 <stepper_tick+0xf6>
    16e0:	51 c0       	rjmp	.+162    	; 0x1784 <stepper_tick+0x198>
    16e2:	2f 5f       	subi	r18, 0xFF	; 255
    16e4:	3f 4f       	sbci	r19, 0xFF	; 255
    16e6:	30 93 ff 01 	sts	0x01FF, r19	; 0x8001ff <b+0x1>
    16ea:	20 93 fe 01 	sts	0x01FE, r18	; 0x8001fe <b>
    16ee:	20 91 04 02 	lds	r18, 0x0204	; 0x800204 <b+0x6>
    16f2:	30 91 05 02 	lds	r19, 0x0205	; 0x800205 <b+0x7>
    16f6:	80 91 02 02 	lds	r24, 0x0202	; 0x800202 <b+0x4>
    16fa:	90 91 03 02 	lds	r25, 0x0203	; 0x800203 <b+0x5>
    16fe:	b9 01       	movw	r22, r18
    1700:	68 1b       	sub	r22, r24
    1702:	79 0b       	sbc	r23, r25
    1704:	cb 01       	movw	r24, r22
    1706:	70 93 05 02 	sts	0x0205, r23	; 0x800205 <b+0x7>
    170a:	60 93 04 02 	sts	0x0204, r22	; 0x800204 <b+0x6>
    170e:	77 ff       	sbrs	r23, 7
    1710:	15 c0       	rjmp	.+42     	; 0x173c <stepper_tick+0x150>
    1712:	84 0f       	add	r24, r20
    1714:	95 1f       	adc	r25, r21
    1716:	90 93 05 02 	sts	0x0205, r25	; 0x800205 <b+0x7>
    171a:	80 93 04 02 	sts	0x0204, r24	; 0x800204 <b+0x6>
    171e:	20 91 16 01 	lds	r18, 0x0116	; 0x800116 <loc_x>
    1722:	30 91 17 01 	lds	r19, 0x0117	; 0x800117 <loc_x+0x1>
    1726:	80 91 06 02 	lds	r24, 0x0206	; 0x800206 <b+0x8>
    172a:	90 91 07 02 	lds	r25, 0x0207	; 0x800207 <b+0x9>
    172e:	82 0f       	add	r24, r18
    1730:	93 1f       	adc	r25, r19
    1732:	90 93 17 01 	sts	0x0117, r25	; 0x800117 <loc_x+0x1>
    1736:	80 93 16 01 	sts	0x0116, r24	; 0x800116 <loc_x>
    173a:	04 c0       	rjmp	.+8      	; 0x1744 <stepper_tick+0x158>
    173c:	80 91 0a 02 	lds	r24, 0x020A	; 0x80020a <b+0xc>
    1740:	88 23       	and	r24, r24
    1742:	79 f0       	breq	.+30     	; 0x1762 <stepper_tick+0x176>
    1744:	20 91 14 01 	lds	r18, 0x0114	; 0x800114 <loc_y>
    1748:	30 91 15 01 	lds	r19, 0x0115	; 0x800115 <loc_y+0x1>
    174c:	80 91 08 02 	lds	r24, 0x0208	; 0x800208 <b+0xa>
    1750:	90 91 09 02 	lds	r25, 0x0209	; 0x800209 <b+0xb>
    1754:	82 0f       	add	r24, r18
    1756:	93 1f       	adc	r25, r19
    1758:	90 93 15 01 	sts	0x0115, r25	; 0x800115 <loc_y+0x1>
    175c:	80 93 14 01 	sts	0x0114, r24	; 0x800114 <loc_y>
    1760:	0e c0       	rjmp	.+28     	; 0x177e <stepper_tick+0x192>
    1762:	20 91 16 01 	lds	r18, 0x0116	; 0x800116 <loc_x>
    1766:	30 91 17 01 	lds	r19, 0x0117	; 0x800117 <loc_x+0x1>
    176a:	80 91 06 02 	lds	r24, 0x0206	; 0x800206 <b+0x8>
    176e:	90 91 07 02 	lds	r25, 0x0207	; 0x800207 <b+0x9>
    1772:	82 0f       	add	r24, r18
    1774:	93 1f       	adc	r25, r19
    1776:	90 93 17 01 	sts	0x0117, r25	; 0x800117 <loc_x+0x1>
    177a:	80 93 16 01 	sts	0x0116, r24	; 0x800116 <loc_x>
    177e:	84 e0       	ldi	r24, 0x04	; 4
    1780:	90 e0       	ldi	r25, 0x00	; 0
    1782:	02 c0       	rjmp	.+4      	; 0x1788 <stepper_tick+0x19c>
    1784:	83 e0       	ldi	r24, 0x03	; 3
    1786:	90 e0       	ldi	r25, 0x00	; 0
    1788:	90 93 fb 01 	sts	0x01FB, r25	; 0x8001fb <ActionState+0x1>
    178c:	80 93 fa 01 	sts	0x01FA, r24	; 0x8001fa <ActionState>
    1790:	80 91 fa 01 	lds	r24, 0x01FA	; 0x8001fa <ActionState>
    1794:	90 91 fb 01 	lds	r25, 0x01FB	; 0x8001fb <ActionState+0x1>
    1798:	03 97       	sbiw	r24, 0x03	; 3
    179a:	49 f4       	brne	.+18     	; 0x17ae <stepper_tick+0x1c2>
    179c:	80 91 12 01 	lds	r24, 0x0112	; 0x800112 <motor_off_delay>
    17a0:	90 91 13 01 	lds	r25, 0x0113	; 0x800113 <motor_off_delay+0x1>
    17a4:	00 97       	sbiw	r24, 0x00	; 0
    17a6:	11 f0       	breq	.+4      	; 0x17ac <stepper_tick+0x1c0>
    17a8:	01 97       	sbiw	r24, 0x01	; 1
    17aa:	17 c0       	rjmp	.+46     	; 0x17da <stepper_tick+0x1ee>
    17ac:	6e cd       	rjmp	.-1316   	; 0x128a <stepper_off>
    17ae:	e0 91 16 01 	lds	r30, 0x0116	; 0x800116 <loc_x>
    17b2:	f0 91 17 01 	lds	r31, 0x0117	; 0x800117 <loc_x+0x1>
    17b6:	ef 70       	andi	r30, 0x0F	; 15
    17b8:	ff 27       	eor	r31, r31
    17ba:	e7 53       	subi	r30, 0x37	; 55
    17bc:	fe 4f       	sbci	r31, 0xFE	; 254
    17be:	80 81       	ld	r24, Z
    17c0:	8b bb       	out	0x1b, r24	; 27
    17c2:	e0 91 14 01 	lds	r30, 0x0114	; 0x800114 <loc_y>
    17c6:	f0 91 15 01 	lds	r31, 0x0115	; 0x800115 <loc_y+0x1>
    17ca:	ef 70       	andi	r30, 0x0F	; 15
    17cc:	ff 27       	eor	r31, r31
    17ce:	e7 53       	subi	r30, 0x37	; 55
    17d0:	fe 4f       	sbci	r31, 0xFE	; 254
    17d2:	80 81       	ld	r24, Z
    17d4:	85 bb       	out	0x15, r24	; 21
    17d6:	80 e3       	ldi	r24, 0x30	; 48
    17d8:	95 e7       	ldi	r25, 0x75	; 117
    17da:	90 93 13 01 	sts	0x0113, r25	; 0x800113 <motor_off_delay+0x1>
    17de:	80 93 12 01 	sts	0x0112, r24	; 0x800112 <motor_off_delay>
    17e2:	08 95       	ret

000017e4 <stepper_init>:
    17e4:	52 dd       	rcall	.-1372   	; 0x128a <stepper_off>
    17e6:	8f ef       	ldi	r24, 0xFF	; 255
    17e8:	8a bb       	out	0x1a, r24	; 26
    17ea:	84 bb       	out	0x14, r24	; 20
    17ec:	12 9a       	sbi	0x02, 2	; 2
    17ee:	91 9a       	sbi	0x12, 1	; 18
    17f0:	08 ce       	rjmp	.-1008   	; 0x1402 <stepper_home>

000017f2 <__vector_15>:
    17f2:	1f 92       	push	r1
    17f4:	0f 92       	push	r0
    17f6:	0f b6       	in	r0, 0x3f	; 63
    17f8:	0f 92       	push	r0
    17fa:	11 24       	eor	r1, r1
    17fc:	8f 93       	push	r24
    17fe:	80 91 18 01 	lds	r24, 0x0118	; 0x800118 <count_25Hz>
    1802:	81 50       	subi	r24, 0x01	; 1
    1804:	19 f0       	breq	.+6      	; 0x180c <__vector_15+0x1a>
    1806:	80 93 18 01 	sts	0x0118, r24	; 0x800118 <count_25Hz>
    180a:	06 c0       	rjmp	.+12     	; 0x1818 <__vector_15+0x26>
    180c:	8a e0       	ldi	r24, 0x0A	; 10
    180e:	80 93 18 01 	sts	0x0118, r24	; 0x800118 <count_25Hz>
    1812:	81 e0       	ldi	r24, 0x01	; 1
    1814:	80 93 1a 04 	sts	0x041A, r24	; 0x80041a <flag_25Hz>
    1818:	80 91 19 01 	lds	r24, 0x0119	; 0x800119 <count_Hz>
    181c:	81 50       	subi	r24, 0x01	; 1
    181e:	19 f0       	breq	.+6      	; 0x1826 <__vector_15+0x34>
    1820:	80 93 19 01 	sts	0x0119, r24	; 0x800119 <count_Hz>
    1824:	06 c0       	rjmp	.+12     	; 0x1832 <__vector_15+0x40>
    1826:	8a ef       	ldi	r24, 0xFA	; 250
    1828:	80 93 19 01 	sts	0x0119, r24	; 0x800119 <count_Hz>
    182c:	81 e0       	ldi	r24, 0x01	; 1
    182e:	80 93 19 04 	sts	0x0419, r24	; 0x800419 <flag_Hz>
    1832:	8f 91       	pop	r24
    1834:	0f 90       	pop	r0
    1836:	0f be       	out	0x3f, r0	; 63
    1838:	0f 90       	pop	r0
    183a:	1f 90       	pop	r1
    183c:	18 95       	reti

0000183e <__vector_9>:
    183e:	1f 92       	push	r1
    1840:	0f 92       	push	r0
    1842:	0f b6       	in	r0, 0x3f	; 63
    1844:	0f 92       	push	r0
    1846:	11 24       	eor	r1, r1
    1848:	0b b6       	in	r0, 0x3b	; 59
    184a:	0f 92       	push	r0
    184c:	2f 93       	push	r18
    184e:	3f 93       	push	r19
    1850:	4f 93       	push	r20
    1852:	5f 93       	push	r21
    1854:	6f 93       	push	r22
    1856:	7f 93       	push	r23
    1858:	8f 93       	push	r24
    185a:	9f 93       	push	r25
    185c:	af 93       	push	r26
    185e:	bf 93       	push	r27
    1860:	ef 93       	push	r30
    1862:	ff 93       	push	r31
    1864:	c3 de       	rcall	.-634    	; 0x15ec <stepper_tick>
    1866:	ff 91       	pop	r31
    1868:	ef 91       	pop	r30
    186a:	bf 91       	pop	r27
    186c:	af 91       	pop	r26
    186e:	9f 91       	pop	r25
    1870:	8f 91       	pop	r24
    1872:	7f 91       	pop	r23
    1874:	6f 91       	pop	r22
    1876:	5f 91       	pop	r21
    1878:	4f 91       	pop	r20
    187a:	3f 91       	pop	r19
    187c:	2f 91       	pop	r18
    187e:	0f 90       	pop	r0
    1880:	0b be       	out	0x3b, r0	; 59
    1882:	0f 90       	pop	r0
    1884:	0f be       	out	0x3f, r0	; 63
    1886:	0f 90       	pop	r0
    1888:	1f 90       	pop	r1
    188a:	18 95       	reti

0000188c <beeper_on>:
    188c:	9c 01       	movw	r18, r24
    188e:	13 9a       	sbi	0x02, 3	; 2
    1890:	bc 01       	movw	r22, r24
    1892:	97 ff       	sbrs	r25, 7
    1894:	02 c0       	rjmp	.+4      	; 0x189a <beeper_on+0xe>
    1896:	6f 5f       	subi	r22, 0xFF	; 255
    1898:	7f 4f       	sbci	r23, 0xFF	; 255
    189a:	75 95       	asr	r23
    189c:	67 95       	ror	r22
    189e:	cb 01       	movw	r24, r22
    18a0:	77 0f       	add	r23, r23
    18a2:	aa 0b       	sbc	r26, r26
    18a4:	bb 0b       	sbc	r27, r27
    18a6:	bc 01       	movw	r22, r24
    18a8:	cd 01       	movw	r24, r26
    18aa:	7e 5e       	subi	r23, 0xEE	; 238
    18ac:	85 48       	sbci	r24, 0x85	; 133
    18ae:	9f 4f       	sbci	r25, 0xFF	; 255
    18b0:	03 2e       	mov	r0, r19
    18b2:	00 0c       	add	r0, r0
    18b4:	44 0b       	sbc	r20, r20
    18b6:	55 0b       	sbc	r21, r21
    18b8:	79 d2       	rcall	.+1266   	; 0x1dac <__divmodsi4>
    18ba:	21 50       	subi	r18, 0x01	; 1
    18bc:	31 09       	sbc	r19, r1
    18be:	30 93 87 00 	sts	0x0087, r19	; 0x800087 <__TEXT_REGION_LENGTH__+0x7e0087>
    18c2:	20 93 86 00 	sts	0x0086, r18	; 0x800086 <__TEXT_REGION_LENGTH__+0x7e0086>
    18c6:	08 95       	ret

000018c8 <beeper_off>:
    18c8:	13 98       	cbi	0x02, 3	; 2
    18ca:	08 95       	ret

000018cc <usleep>:
    18cc:	22 b7       	in	r18, 0x32	; 50
    18ce:	97 fd       	sbrc	r25, 7
    18d0:	0f 96       	adiw	r24, 0x0f	; 15
    18d2:	34 e0       	ldi	r19, 0x04	; 4
    18d4:	95 95       	asr	r25
    18d6:	87 95       	ror	r24
    18d8:	3a 95       	dec	r19
    18da:	e1 f7       	brne	.-8      	; 0x18d4 <usleep+0x8>
    18dc:	82 0f       	add	r24, r18
    18de:	92 b7       	in	r25, 0x32	; 50
    18e0:	98 1b       	sub	r25, r24
    18e2:	97 fd       	sbrc	r25, 7
    18e4:	fc cf       	rjmp	.-8      	; 0x18de <usleep+0x12>
    18e6:	08 95       	ret

000018e8 <msleep>:
    18e8:	cf 93       	push	r28
    18ea:	df 93       	push	r29
    18ec:	ec 01       	movw	r28, r24
    18ee:	20 97       	sbiw	r28, 0x00	; 0
    18f0:	29 f0       	breq	.+10     	; 0x18fc <msleep+0x14>
    18f2:	88 ee       	ldi	r24, 0xE8	; 232
    18f4:	93 e0       	ldi	r25, 0x03	; 3
    18f6:	ea df       	rcall	.-44     	; 0x18cc <usleep>
    18f8:	21 97       	sbiw	r28, 0x01	; 1
    18fa:	f9 cf       	rjmp	.-14     	; 0x18ee <msleep+0x6>
    18fc:	df 91       	pop	r29
    18fe:	cf 91       	pop	r28
    1900:	08 95       	ret

00001902 <timer_get_stepper_speed>:
    1902:	80 91 0f 02 	lds	r24, 0x020F	; 0x80020f <current_stepper_speed>
    1906:	90 91 10 02 	lds	r25, 0x0210	; 0x800210 <current_stepper_speed+0x1>
    190a:	08 95       	ret

0000190c <timer_set_stepper_speed>:
    190c:	8a 30       	cpi	r24, 0x0A	; 10
    190e:	91 05       	cpc	r25, r1
    1910:	34 f4       	brge	.+12     	; 0x191e <timer_set_stepper_speed+0x12>
    1912:	18 16       	cp	r1, r24
    1914:	19 06       	cpc	r1, r25
    1916:	2c f0       	brlt	.+10     	; 0x1922 <timer_set_stepper_speed+0x16>
    1918:	81 e0       	ldi	r24, 0x01	; 1
    191a:	90 e0       	ldi	r25, 0x00	; 0
    191c:	02 c0       	rjmp	.+4      	; 0x1922 <timer_set_stepper_speed+0x16>
    191e:	89 e0       	ldi	r24, 0x09	; 9
    1920:	90 e0       	ldi	r25, 0x00	; 0
    1922:	90 93 10 02 	sts	0x0210, r25	; 0x800210 <current_stepper_speed+0x1>
    1926:	80 93 0f 02 	sts	0x020F, r24	; 0x80020f <current_stepper_speed>
    192a:	47 ee       	ldi	r20, 0xE7	; 231
    192c:	bc 01       	movw	r22, r24
    192e:	46 03       	mulsu	r20, r22
    1930:	90 01       	movw	r18, r0
    1932:	47 9f       	mul	r20, r23
    1934:	30 0d       	add	r19, r0
    1936:	11 24       	eor	r1, r1
    1938:	85 b5       	in	r24, 0x25	; 37
    193a:	88 7f       	andi	r24, 0xF8	; 248
    193c:	85 bd       	out	0x25, r24	; 37
    193e:	22 50       	subi	r18, 0x02	; 2
    1940:	23 bd       	out	0x23, r18	; 35
    1942:	85 b5       	in	r24, 0x25	; 37
    1944:	84 60       	ori	r24, 0x04	; 4
    1946:	85 bd       	out	0x25, r24	; 37
    1948:	99 c9       	rjmp	.-3278   	; 0xc7c <lcd_report_speed>

0000194a <timer_get_pen_pressure>:
    194a:	80 91 11 02 	lds	r24, 0x0211	; 0x800211 <current_pen_pressure>
    194e:	90 91 12 02 	lds	r25, 0x0212	; 0x800212 <current_pen_pressure+0x1>
    1952:	08 95       	ret

00001954 <timer_set_pen_pressure>:
    1954:	8b 30       	cpi	r24, 0x0B	; 11
    1956:	91 05       	cpc	r25, r1
    1958:	34 f4       	brge	.+12     	; 0x1966 <timer_set_pen_pressure+0x12>
    195a:	18 16       	cp	r1, r24
    195c:	19 06       	cpc	r1, r25
    195e:	2c f0       	brlt	.+10     	; 0x196a <timer_set_pen_pressure+0x16>
    1960:	81 e0       	ldi	r24, 0x01	; 1
    1962:	90 e0       	ldi	r25, 0x00	; 0
    1964:	02 c0       	rjmp	.+4      	; 0x196a <timer_set_pen_pressure+0x16>
    1966:	8a e0       	ldi	r24, 0x0A	; 10
    1968:	90 e0       	ldi	r25, 0x00	; 0
    196a:	90 93 12 02 	sts	0x0212, r25	; 0x800212 <current_pen_pressure+0x1>
    196e:	80 93 11 02 	sts	0x0211, r24	; 0x800211 <current_pen_pressure>
    1972:	4f e2       	ldi	r20, 0x2F	; 47
    1974:	48 9f       	mul	r20, r24
    1976:	90 01       	movw	r18, r0
    1978:	49 9f       	mul	r20, r25
    197a:	30 0d       	add	r19, r0
    197c:	11 24       	eor	r1, r1
    197e:	84 ef       	ldi	r24, 0xF4	; 244
    1980:	91 e0       	ldi	r25, 0x01	; 1
    1982:	82 1b       	sub	r24, r18
    1984:	93 0b       	sbc	r25, r19
    1986:	99 bd       	out	0x29, r25	; 41
    1988:	88 bd       	out	0x28, r24	; 40
    198a:	53 c9       	rjmp	.-3418   	; 0xc32 <lcd_report_pressure>

0000198c <timer_init>:
    198c:	8e e0       	ldi	r24, 0x0E	; 14
    198e:	83 bf       	out	0x33, r24	; 51
    1990:	89 ef       	ldi	r24, 0xF9	; 249
    1992:	81 bf       	out	0x31, r24	; 49
    1994:	82 e0       	ldi	r24, 0x02	; 2
    1996:	87 bf       	out	0x37, r24	; 55
    1998:	be 9a       	sbi	0x17, 6	; 23
    199a:	83 e2       	ldi	r24, 0x23	; 35
    199c:	8f bd       	out	0x2f, r24	; 47
    199e:	89 e0       	ldi	r24, 0x09	; 9
    19a0:	8e bd       	out	0x2e, r24	; 46
    19a2:	8f ef       	ldi	r24, 0xFF	; 255
    19a4:	93 e0       	ldi	r25, 0x03	; 3
    19a6:	99 bd       	out	0x29, r25	; 41
    19a8:	88 bd       	out	0x28, r24	; 40
    19aa:	8c e0       	ldi	r24, 0x0C	; 12
    19ac:	85 bd       	out	0x25, r24	; 37
    19ae:	83 e6       	ldi	r24, 0x63	; 99
    19b0:	83 bd       	out	0x23, r24	; 35
    19b2:	87 b7       	in	r24, 0x37	; 55
    19b4:	80 68       	ori	r24, 0x80	; 128
    19b6:	87 bf       	out	0x37, r24	; 55
    19b8:	83 e4       	ldi	r24, 0x43	; 67
    19ba:	80 93 8b 00 	sts	0x008B, r24	; 0x80008b <__TEXT_REGION_LENGTH__+0x7e008b>
    19be:	89 e1       	ldi	r24, 0x19	; 25
    19c0:	80 93 8a 00 	sts	0x008A, r24	; 0x80008a <__TEXT_REGION_LENGTH__+0x7e008a>
    19c4:	08 95       	ret

000019c6 <usb_puts>:
    19c6:	cf 93       	push	r28
    19c8:	df 93       	push	r29
    19ca:	ec 01       	movw	r28, r24
    19cc:	89 91       	ld	r24, Y+
    19ce:	88 23       	and	r24, r24
    19d0:	11 f0       	breq	.+4      	; 0x19d6 <usb_puts+0x10>
    19d2:	2f db       	rcall	.-2466   	; 0x1032 <serial_write>
    19d4:	fb cf       	rjmp	.-10     	; 0x19cc <usb_puts+0x6>
    19d6:	df 91       	pop	r29
    19d8:	cf 91       	pop	r28
    19da:	08 95       	ret

000019dc <usb_getc>:
    19dc:	83 cb       	rjmp	.-2298   	; 0x10e4 <serial_read>

000019de <usb_init>:
    19de:	13 cb       	rjmp	.-2522   	; 0x1006 <serial_init>

000019e0 <__divsf3>:
    19e0:	0c d0       	rcall	.+24     	; 0x19fa <__divsf3x>
    19e2:	eb c0       	rjmp	.+470    	; 0x1bba <__fp_round>
    19e4:	e3 d0       	rcall	.+454    	; 0x1bac <__fp_pscB>
    19e6:	40 f0       	brcs	.+16     	; 0x19f8 <__divsf3+0x18>
    19e8:	da d0       	rcall	.+436    	; 0x1b9e <__fp_pscA>
    19ea:	30 f0       	brcs	.+12     	; 0x19f8 <__divsf3+0x18>
    19ec:	21 f4       	brne	.+8      	; 0x19f6 <__divsf3+0x16>
    19ee:	5f 3f       	cpi	r21, 0xFF	; 255
    19f0:	19 f0       	breq	.+6      	; 0x19f8 <__divsf3+0x18>
    19f2:	cc c0       	rjmp	.+408    	; 0x1b8c <__fp_inf>
    19f4:	51 11       	cpse	r21, r1
    19f6:	15 c1       	rjmp	.+554    	; 0x1c22 <__fp_szero>
    19f8:	cf c0       	rjmp	.+414    	; 0x1b98 <__fp_nan>

000019fa <__divsf3x>:
    19fa:	f0 d0       	rcall	.+480    	; 0x1bdc <__fp_split3>
    19fc:	98 f3       	brcs	.-26     	; 0x19e4 <__divsf3+0x4>

000019fe <__divsf3_pse>:
    19fe:	99 23       	and	r25, r25
    1a00:	c9 f3       	breq	.-14     	; 0x19f4 <__divsf3+0x14>
    1a02:	55 23       	and	r21, r21
    1a04:	b1 f3       	breq	.-20     	; 0x19f2 <__divsf3+0x12>
    1a06:	95 1b       	sub	r25, r21
    1a08:	55 0b       	sbc	r21, r21
    1a0a:	bb 27       	eor	r27, r27
    1a0c:	aa 27       	eor	r26, r26
    1a0e:	62 17       	cp	r22, r18
    1a10:	73 07       	cpc	r23, r19
    1a12:	84 07       	cpc	r24, r20
    1a14:	38 f0       	brcs	.+14     	; 0x1a24 <__divsf3_pse+0x26>
    1a16:	9f 5f       	subi	r25, 0xFF	; 255
    1a18:	5f 4f       	sbci	r21, 0xFF	; 255
    1a1a:	22 0f       	add	r18, r18
    1a1c:	33 1f       	adc	r19, r19
    1a1e:	44 1f       	adc	r20, r20
    1a20:	aa 1f       	adc	r26, r26
    1a22:	a9 f3       	breq	.-22     	; 0x1a0e <__divsf3_pse+0x10>
    1a24:	33 d0       	rcall	.+102    	; 0x1a8c <__divsf3_pse+0x8e>
    1a26:	0e 2e       	mov	r0, r30
    1a28:	3a f0       	brmi	.+14     	; 0x1a38 <__divsf3_pse+0x3a>
    1a2a:	e0 e8       	ldi	r30, 0x80	; 128
    1a2c:	30 d0       	rcall	.+96     	; 0x1a8e <__divsf3_pse+0x90>
    1a2e:	91 50       	subi	r25, 0x01	; 1
    1a30:	50 40       	sbci	r21, 0x00	; 0
    1a32:	e6 95       	lsr	r30
    1a34:	00 1c       	adc	r0, r0
    1a36:	ca f7       	brpl	.-14     	; 0x1a2a <__divsf3_pse+0x2c>
    1a38:	29 d0       	rcall	.+82     	; 0x1a8c <__divsf3_pse+0x8e>
    1a3a:	fe 2f       	mov	r31, r30
    1a3c:	27 d0       	rcall	.+78     	; 0x1a8c <__divsf3_pse+0x8e>
    1a3e:	66 0f       	add	r22, r22
    1a40:	77 1f       	adc	r23, r23
    1a42:	88 1f       	adc	r24, r24
    1a44:	bb 1f       	adc	r27, r27
    1a46:	26 17       	cp	r18, r22
    1a48:	37 07       	cpc	r19, r23
    1a4a:	48 07       	cpc	r20, r24
    1a4c:	ab 07       	cpc	r26, r27
    1a4e:	b0 e8       	ldi	r27, 0x80	; 128
    1a50:	09 f0       	breq	.+2      	; 0x1a54 <__divsf3_pse+0x56>
    1a52:	bb 0b       	sbc	r27, r27
    1a54:	80 2d       	mov	r24, r0
    1a56:	bf 01       	movw	r22, r30
    1a58:	ff 27       	eor	r31, r31
    1a5a:	93 58       	subi	r25, 0x83	; 131
    1a5c:	5f 4f       	sbci	r21, 0xFF	; 255
    1a5e:	2a f0       	brmi	.+10     	; 0x1a6a <__divsf3_pse+0x6c>
    1a60:	9e 3f       	cpi	r25, 0xFE	; 254
    1a62:	51 05       	cpc	r21, r1
    1a64:	68 f0       	brcs	.+26     	; 0x1a80 <__divsf3_pse+0x82>
    1a66:	92 c0       	rjmp	.+292    	; 0x1b8c <__fp_inf>
    1a68:	dc c0       	rjmp	.+440    	; 0x1c22 <__fp_szero>
    1a6a:	5f 3f       	cpi	r21, 0xFF	; 255
    1a6c:	ec f3       	brlt	.-6      	; 0x1a68 <__divsf3_pse+0x6a>
    1a6e:	98 3e       	cpi	r25, 0xE8	; 232
    1a70:	dc f3       	brlt	.-10     	; 0x1a68 <__divsf3_pse+0x6a>
    1a72:	86 95       	lsr	r24
    1a74:	77 95       	ror	r23
    1a76:	67 95       	ror	r22
    1a78:	b7 95       	ror	r27
    1a7a:	f7 95       	ror	r31
    1a7c:	9f 5f       	subi	r25, 0xFF	; 255
    1a7e:	c9 f7       	brne	.-14     	; 0x1a72 <__divsf3_pse+0x74>
    1a80:	88 0f       	add	r24, r24
    1a82:	91 1d       	adc	r25, r1
    1a84:	96 95       	lsr	r25
    1a86:	87 95       	ror	r24
    1a88:	97 f9       	bld	r25, 7
    1a8a:	08 95       	ret
    1a8c:	e1 e0       	ldi	r30, 0x01	; 1
    1a8e:	66 0f       	add	r22, r22
    1a90:	77 1f       	adc	r23, r23
    1a92:	88 1f       	adc	r24, r24
    1a94:	bb 1f       	adc	r27, r27
    1a96:	62 17       	cp	r22, r18
    1a98:	73 07       	cpc	r23, r19
    1a9a:	84 07       	cpc	r24, r20
    1a9c:	ba 07       	cpc	r27, r26
    1a9e:	20 f0       	brcs	.+8      	; 0x1aa8 <__divsf3_pse+0xaa>
    1aa0:	62 1b       	sub	r22, r18
    1aa2:	73 0b       	sbc	r23, r19
    1aa4:	84 0b       	sbc	r24, r20
    1aa6:	ba 0b       	sbc	r27, r26
    1aa8:	ee 1f       	adc	r30, r30
    1aaa:	88 f7       	brcc	.-30     	; 0x1a8e <__divsf3_pse+0x90>
    1aac:	e0 95       	com	r30
    1aae:	08 95       	ret

00001ab0 <__fixsfsi>:
    1ab0:	04 d0       	rcall	.+8      	; 0x1aba <__fixunssfsi>
    1ab2:	68 94       	set
    1ab4:	b1 11       	cpse	r27, r1
    1ab6:	b5 c0       	rjmp	.+362    	; 0x1c22 <__fp_szero>
    1ab8:	08 95       	ret

00001aba <__fixunssfsi>:
    1aba:	98 d0       	rcall	.+304    	; 0x1bec <__fp_splitA>
    1abc:	88 f0       	brcs	.+34     	; 0x1ae0 <__fixunssfsi+0x26>
    1abe:	9f 57       	subi	r25, 0x7F	; 127
    1ac0:	90 f0       	brcs	.+36     	; 0x1ae6 <__fixunssfsi+0x2c>
    1ac2:	b9 2f       	mov	r27, r25
    1ac4:	99 27       	eor	r25, r25
    1ac6:	b7 51       	subi	r27, 0x17	; 23
    1ac8:	a0 f0       	brcs	.+40     	; 0x1af2 <__fixunssfsi+0x38>
    1aca:	d1 f0       	breq	.+52     	; 0x1b00 <__fixunssfsi+0x46>
    1acc:	66 0f       	add	r22, r22
    1ace:	77 1f       	adc	r23, r23
    1ad0:	88 1f       	adc	r24, r24
    1ad2:	99 1f       	adc	r25, r25
    1ad4:	1a f0       	brmi	.+6      	; 0x1adc <__fixunssfsi+0x22>
    1ad6:	ba 95       	dec	r27
    1ad8:	c9 f7       	brne	.-14     	; 0x1acc <__fixunssfsi+0x12>
    1ada:	12 c0       	rjmp	.+36     	; 0x1b00 <__fixunssfsi+0x46>
    1adc:	b1 30       	cpi	r27, 0x01	; 1
    1ade:	81 f0       	breq	.+32     	; 0x1b00 <__fixunssfsi+0x46>
    1ae0:	9f d0       	rcall	.+318    	; 0x1c20 <__fp_zero>
    1ae2:	b1 e0       	ldi	r27, 0x01	; 1
    1ae4:	08 95       	ret
    1ae6:	9c c0       	rjmp	.+312    	; 0x1c20 <__fp_zero>
    1ae8:	67 2f       	mov	r22, r23
    1aea:	78 2f       	mov	r23, r24
    1aec:	88 27       	eor	r24, r24
    1aee:	b8 5f       	subi	r27, 0xF8	; 248
    1af0:	39 f0       	breq	.+14     	; 0x1b00 <__fixunssfsi+0x46>
    1af2:	b9 3f       	cpi	r27, 0xF9	; 249
    1af4:	cc f3       	brlt	.-14     	; 0x1ae8 <__fixunssfsi+0x2e>
    1af6:	86 95       	lsr	r24
    1af8:	77 95       	ror	r23
    1afa:	67 95       	ror	r22
    1afc:	b3 95       	inc	r27
    1afe:	d9 f7       	brne	.-10     	; 0x1af6 <__fixunssfsi+0x3c>
    1b00:	3e f4       	brtc	.+14     	; 0x1b10 <__fixunssfsi+0x56>
    1b02:	90 95       	com	r25
    1b04:	80 95       	com	r24
    1b06:	70 95       	com	r23
    1b08:	61 95       	neg	r22
    1b0a:	7f 4f       	sbci	r23, 0xFF	; 255
    1b0c:	8f 4f       	sbci	r24, 0xFF	; 255
    1b0e:	9f 4f       	sbci	r25, 0xFF	; 255
    1b10:	08 95       	ret

00001b12 <__floatunsisf>:
    1b12:	e8 94       	clt
    1b14:	09 c0       	rjmp	.+18     	; 0x1b28 <__floatsisf+0x12>

00001b16 <__floatsisf>:
    1b16:	97 fb       	bst	r25, 7
    1b18:	3e f4       	brtc	.+14     	; 0x1b28 <__floatsisf+0x12>
    1b1a:	90 95       	com	r25
    1b1c:	80 95       	com	r24
    1b1e:	70 95       	com	r23
    1b20:	61 95       	neg	r22
    1b22:	7f 4f       	sbci	r23, 0xFF	; 255
    1b24:	8f 4f       	sbci	r24, 0xFF	; 255
    1b26:	9f 4f       	sbci	r25, 0xFF	; 255
    1b28:	99 23       	and	r25, r25
    1b2a:	a9 f0       	breq	.+42     	; 0x1b56 <__floatsisf+0x40>
    1b2c:	f9 2f       	mov	r31, r25
    1b2e:	96 e9       	ldi	r25, 0x96	; 150
    1b30:	bb 27       	eor	r27, r27
    1b32:	93 95       	inc	r25
    1b34:	f6 95       	lsr	r31
    1b36:	87 95       	ror	r24
    1b38:	77 95       	ror	r23
    1b3a:	67 95       	ror	r22
    1b3c:	b7 95       	ror	r27
    1b3e:	f1 11       	cpse	r31, r1
    1b40:	f8 cf       	rjmp	.-16     	; 0x1b32 <__floatsisf+0x1c>
    1b42:	fa f4       	brpl	.+62     	; 0x1b82 <__floatsisf+0x6c>
    1b44:	bb 0f       	add	r27, r27
    1b46:	11 f4       	brne	.+4      	; 0x1b4c <__floatsisf+0x36>
    1b48:	60 ff       	sbrs	r22, 0
    1b4a:	1b c0       	rjmp	.+54     	; 0x1b82 <__floatsisf+0x6c>
    1b4c:	6f 5f       	subi	r22, 0xFF	; 255
    1b4e:	7f 4f       	sbci	r23, 0xFF	; 255
    1b50:	8f 4f       	sbci	r24, 0xFF	; 255
    1b52:	9f 4f       	sbci	r25, 0xFF	; 255
    1b54:	16 c0       	rjmp	.+44     	; 0x1b82 <__floatsisf+0x6c>
    1b56:	88 23       	and	r24, r24
    1b58:	11 f0       	breq	.+4      	; 0x1b5e <__floatsisf+0x48>
    1b5a:	96 e9       	ldi	r25, 0x96	; 150
    1b5c:	11 c0       	rjmp	.+34     	; 0x1b80 <__floatsisf+0x6a>
    1b5e:	77 23       	and	r23, r23
    1b60:	21 f0       	breq	.+8      	; 0x1b6a <__floatsisf+0x54>
    1b62:	9e e8       	ldi	r25, 0x8E	; 142
    1b64:	87 2f       	mov	r24, r23
    1b66:	76 2f       	mov	r23, r22
    1b68:	05 c0       	rjmp	.+10     	; 0x1b74 <__floatsisf+0x5e>
    1b6a:	66 23       	and	r22, r22
    1b6c:	71 f0       	breq	.+28     	; 0x1b8a <__floatsisf+0x74>
    1b6e:	96 e8       	ldi	r25, 0x86	; 134
    1b70:	86 2f       	mov	r24, r22
    1b72:	70 e0       	ldi	r23, 0x00	; 0
    1b74:	60 e0       	ldi	r22, 0x00	; 0
    1b76:	2a f0       	brmi	.+10     	; 0x1b82 <__floatsisf+0x6c>
    1b78:	9a 95       	dec	r25
    1b7a:	66 0f       	add	r22, r22
    1b7c:	77 1f       	adc	r23, r23
    1b7e:	88 1f       	adc	r24, r24
    1b80:	da f7       	brpl	.-10     	; 0x1b78 <__floatsisf+0x62>
    1b82:	88 0f       	add	r24, r24
    1b84:	96 95       	lsr	r25
    1b86:	87 95       	ror	r24
    1b88:	97 f9       	bld	r25, 7
    1b8a:	08 95       	ret

00001b8c <__fp_inf>:
    1b8c:	97 f9       	bld	r25, 7
    1b8e:	9f 67       	ori	r25, 0x7F	; 127
    1b90:	80 e8       	ldi	r24, 0x80	; 128
    1b92:	70 e0       	ldi	r23, 0x00	; 0
    1b94:	60 e0       	ldi	r22, 0x00	; 0
    1b96:	08 95       	ret

00001b98 <__fp_nan>:
    1b98:	9f ef       	ldi	r25, 0xFF	; 255
    1b9a:	80 ec       	ldi	r24, 0xC0	; 192
    1b9c:	08 95       	ret

00001b9e <__fp_pscA>:
    1b9e:	00 24       	eor	r0, r0
    1ba0:	0a 94       	dec	r0
    1ba2:	16 16       	cp	r1, r22
    1ba4:	17 06       	cpc	r1, r23
    1ba6:	18 06       	cpc	r1, r24
    1ba8:	09 06       	cpc	r0, r25
    1baa:	08 95       	ret

00001bac <__fp_pscB>:
    1bac:	00 24       	eor	r0, r0
    1bae:	0a 94       	dec	r0
    1bb0:	12 16       	cp	r1, r18
    1bb2:	13 06       	cpc	r1, r19
    1bb4:	14 06       	cpc	r1, r20
    1bb6:	05 06       	cpc	r0, r21
    1bb8:	08 95       	ret

00001bba <__fp_round>:
    1bba:	09 2e       	mov	r0, r25
    1bbc:	03 94       	inc	r0
    1bbe:	00 0c       	add	r0, r0
    1bc0:	11 f4       	brne	.+4      	; 0x1bc6 <__fp_round+0xc>
    1bc2:	88 23       	and	r24, r24
    1bc4:	52 f0       	brmi	.+20     	; 0x1bda <__fp_round+0x20>
    1bc6:	bb 0f       	add	r27, r27
    1bc8:	40 f4       	brcc	.+16     	; 0x1bda <__fp_round+0x20>
    1bca:	bf 2b       	or	r27, r31
    1bcc:	11 f4       	brne	.+4      	; 0x1bd2 <__fp_round+0x18>
    1bce:	60 ff       	sbrs	r22, 0
    1bd0:	04 c0       	rjmp	.+8      	; 0x1bda <__fp_round+0x20>
    1bd2:	6f 5f       	subi	r22, 0xFF	; 255
    1bd4:	7f 4f       	sbci	r23, 0xFF	; 255
    1bd6:	8f 4f       	sbci	r24, 0xFF	; 255
    1bd8:	9f 4f       	sbci	r25, 0xFF	; 255
    1bda:	08 95       	ret

00001bdc <__fp_split3>:
    1bdc:	57 fd       	sbrc	r21, 7
    1bde:	90 58       	subi	r25, 0x80	; 128
    1be0:	44 0f       	add	r20, r20
    1be2:	55 1f       	adc	r21, r21
    1be4:	59 f0       	breq	.+22     	; 0x1bfc <__fp_splitA+0x10>
    1be6:	5f 3f       	cpi	r21, 0xFF	; 255
    1be8:	71 f0       	breq	.+28     	; 0x1c06 <__fp_splitA+0x1a>
    1bea:	47 95       	ror	r20

00001bec <__fp_splitA>:
    1bec:	88 0f       	add	r24, r24
    1bee:	97 fb       	bst	r25, 7
    1bf0:	99 1f       	adc	r25, r25
    1bf2:	61 f0       	breq	.+24     	; 0x1c0c <__fp_splitA+0x20>
    1bf4:	9f 3f       	cpi	r25, 0xFF	; 255
    1bf6:	79 f0       	breq	.+30     	; 0x1c16 <__fp_splitA+0x2a>
    1bf8:	87 95       	ror	r24
    1bfa:	08 95       	ret
    1bfc:	12 16       	cp	r1, r18
    1bfe:	13 06       	cpc	r1, r19
    1c00:	14 06       	cpc	r1, r20
    1c02:	55 1f       	adc	r21, r21
    1c04:	f2 cf       	rjmp	.-28     	; 0x1bea <__fp_split3+0xe>
    1c06:	46 95       	lsr	r20
    1c08:	f1 df       	rcall	.-30     	; 0x1bec <__fp_splitA>
    1c0a:	08 c0       	rjmp	.+16     	; 0x1c1c <__fp_splitA+0x30>
    1c0c:	16 16       	cp	r1, r22
    1c0e:	17 06       	cpc	r1, r23
    1c10:	18 06       	cpc	r1, r24
    1c12:	99 1f       	adc	r25, r25
    1c14:	f1 cf       	rjmp	.-30     	; 0x1bf8 <__fp_splitA+0xc>
    1c16:	86 95       	lsr	r24
    1c18:	71 05       	cpc	r23, r1
    1c1a:	61 05       	cpc	r22, r1
    1c1c:	08 94       	sec
    1c1e:	08 95       	ret

00001c20 <__fp_zero>:
    1c20:	e8 94       	clt

00001c22 <__fp_szero>:
    1c22:	bb 27       	eor	r27, r27
    1c24:	66 27       	eor	r22, r22
    1c26:	77 27       	eor	r23, r23
    1c28:	cb 01       	movw	r24, r22
    1c2a:	97 f9       	bld	r25, 7
    1c2c:	08 95       	ret

00001c2e <__mulsf3>:
    1c2e:	0b d0       	rcall	.+22     	; 0x1c46 <__mulsf3x>
    1c30:	c4 cf       	rjmp	.-120    	; 0x1bba <__fp_round>
    1c32:	b5 df       	rcall	.-150    	; 0x1b9e <__fp_pscA>
    1c34:	28 f0       	brcs	.+10     	; 0x1c40 <__mulsf3+0x12>
    1c36:	ba df       	rcall	.-140    	; 0x1bac <__fp_pscB>
    1c38:	18 f0       	brcs	.+6      	; 0x1c40 <__mulsf3+0x12>
    1c3a:	95 23       	and	r25, r21
    1c3c:	09 f0       	breq	.+2      	; 0x1c40 <__mulsf3+0x12>
    1c3e:	a6 cf       	rjmp	.-180    	; 0x1b8c <__fp_inf>
    1c40:	ab cf       	rjmp	.-170    	; 0x1b98 <__fp_nan>
    1c42:	11 24       	eor	r1, r1
    1c44:	ee cf       	rjmp	.-36     	; 0x1c22 <__fp_szero>

00001c46 <__mulsf3x>:
    1c46:	ca df       	rcall	.-108    	; 0x1bdc <__fp_split3>
    1c48:	a0 f3       	brcs	.-24     	; 0x1c32 <__mulsf3+0x4>

00001c4a <__mulsf3_pse>:
    1c4a:	95 9f       	mul	r25, r21
    1c4c:	d1 f3       	breq	.-12     	; 0x1c42 <__mulsf3+0x14>
    1c4e:	95 0f       	add	r25, r21
    1c50:	50 e0       	ldi	r21, 0x00	; 0
    1c52:	55 1f       	adc	r21, r21
    1c54:	62 9f       	mul	r22, r18
    1c56:	f0 01       	movw	r30, r0
    1c58:	72 9f       	mul	r23, r18
    1c5a:	bb 27       	eor	r27, r27
    1c5c:	f0 0d       	add	r31, r0
    1c5e:	b1 1d       	adc	r27, r1
    1c60:	63 9f       	mul	r22, r19
    1c62:	aa 27       	eor	r26, r26
    1c64:	f0 0d       	add	r31, r0
    1c66:	b1 1d       	adc	r27, r1
    1c68:	aa 1f       	adc	r26, r26
    1c6a:	64 9f       	mul	r22, r20
    1c6c:	66 27       	eor	r22, r22
    1c6e:	b0 0d       	add	r27, r0
    1c70:	a1 1d       	adc	r26, r1
    1c72:	66 1f       	adc	r22, r22
    1c74:	82 9f       	mul	r24, r18
    1c76:	22 27       	eor	r18, r18
    1c78:	b0 0d       	add	r27, r0
    1c7a:	a1 1d       	adc	r26, r1
    1c7c:	62 1f       	adc	r22, r18
    1c7e:	73 9f       	mul	r23, r19
    1c80:	b0 0d       	add	r27, r0
    1c82:	a1 1d       	adc	r26, r1
    1c84:	62 1f       	adc	r22, r18
    1c86:	83 9f       	mul	r24, r19
    1c88:	a0 0d       	add	r26, r0
    1c8a:	61 1d       	adc	r22, r1
    1c8c:	22 1f       	adc	r18, r18
    1c8e:	74 9f       	mul	r23, r20
    1c90:	33 27       	eor	r19, r19
    1c92:	a0 0d       	add	r26, r0
    1c94:	61 1d       	adc	r22, r1
    1c96:	23 1f       	adc	r18, r19
    1c98:	84 9f       	mul	r24, r20
    1c9a:	60 0d       	add	r22, r0
    1c9c:	21 1d       	adc	r18, r1
    1c9e:	82 2f       	mov	r24, r18
    1ca0:	76 2f       	mov	r23, r22
    1ca2:	6a 2f       	mov	r22, r26
    1ca4:	11 24       	eor	r1, r1
    1ca6:	9f 57       	subi	r25, 0x7F	; 127
    1ca8:	50 40       	sbci	r21, 0x00	; 0
    1caa:	8a f0       	brmi	.+34     	; 0x1cce <__mulsf3_pse+0x84>
    1cac:	e1 f0       	breq	.+56     	; 0x1ce6 <__mulsf3_pse+0x9c>
    1cae:	88 23       	and	r24, r24
    1cb0:	4a f0       	brmi	.+18     	; 0x1cc4 <__mulsf3_pse+0x7a>
    1cb2:	ee 0f       	add	r30, r30
    1cb4:	ff 1f       	adc	r31, r31
    1cb6:	bb 1f       	adc	r27, r27
    1cb8:	66 1f       	adc	r22, r22
    1cba:	77 1f       	adc	r23, r23
    1cbc:	88 1f       	adc	r24, r24
    1cbe:	91 50       	subi	r25, 0x01	; 1
    1cc0:	50 40       	sbci	r21, 0x00	; 0
    1cc2:	a9 f7       	brne	.-22     	; 0x1cae <__mulsf3_pse+0x64>
    1cc4:	9e 3f       	cpi	r25, 0xFE	; 254
    1cc6:	51 05       	cpc	r21, r1
    1cc8:	70 f0       	brcs	.+28     	; 0x1ce6 <__mulsf3_pse+0x9c>
    1cca:	60 cf       	rjmp	.-320    	; 0x1b8c <__fp_inf>
    1ccc:	aa cf       	rjmp	.-172    	; 0x1c22 <__fp_szero>
    1cce:	5f 3f       	cpi	r21, 0xFF	; 255
    1cd0:	ec f3       	brlt	.-6      	; 0x1ccc <__mulsf3_pse+0x82>
    1cd2:	98 3e       	cpi	r25, 0xE8	; 232
    1cd4:	dc f3       	brlt	.-10     	; 0x1ccc <__mulsf3_pse+0x82>
    1cd6:	86 95       	lsr	r24
    1cd8:	77 95       	ror	r23
    1cda:	67 95       	ror	r22
    1cdc:	b7 95       	ror	r27
    1cde:	f7 95       	ror	r31
    1ce0:	e7 95       	ror	r30
    1ce2:	9f 5f       	subi	r25, 0xFF	; 255
    1ce4:	c1 f7       	brne	.-16     	; 0x1cd6 <__mulsf3_pse+0x8c>
    1ce6:	fe 2b       	or	r31, r30
    1ce8:	88 0f       	add	r24, r24
    1cea:	91 1d       	adc	r25, r1
    1cec:	96 95       	lsr	r25
    1cee:	87 95       	ror	r24
    1cf0:	97 f9       	bld	r25, 7
    1cf2:	08 95       	ret

00001cf4 <round>:
    1cf4:	7b df       	rcall	.-266    	; 0x1bec <__fp_splitA>
    1cf6:	e0 f0       	brcs	.+56     	; 0x1d30 <round+0x3c>
    1cf8:	9e 37       	cpi	r25, 0x7E	; 126
    1cfa:	d8 f0       	brcs	.+54     	; 0x1d32 <round+0x3e>
    1cfc:	96 39       	cpi	r25, 0x96	; 150
    1cfe:	b8 f4       	brcc	.+46     	; 0x1d2e <round+0x3a>
    1d00:	9e 38       	cpi	r25, 0x8E	; 142
    1d02:	48 f4       	brcc	.+18     	; 0x1d16 <round+0x22>
    1d04:	67 2f       	mov	r22, r23
    1d06:	78 2f       	mov	r23, r24
    1d08:	88 27       	eor	r24, r24
    1d0a:	98 5f       	subi	r25, 0xF8	; 248
    1d0c:	f9 cf       	rjmp	.-14     	; 0x1d00 <round+0xc>
    1d0e:	86 95       	lsr	r24
    1d10:	77 95       	ror	r23
    1d12:	67 95       	ror	r22
    1d14:	93 95       	inc	r25
    1d16:	95 39       	cpi	r25, 0x95	; 149
    1d18:	d0 f3       	brcs	.-12     	; 0x1d0e <round+0x1a>
    1d1a:	b6 2f       	mov	r27, r22
    1d1c:	b1 70       	andi	r27, 0x01	; 1
    1d1e:	6b 0f       	add	r22, r27
    1d20:	71 1d       	adc	r23, r1
    1d22:	81 1d       	adc	r24, r1
    1d24:	20 f4       	brcc	.+8      	; 0x1d2e <round+0x3a>
    1d26:	87 95       	ror	r24
    1d28:	77 95       	ror	r23
    1d2a:	67 95       	ror	r22
    1d2c:	93 95       	inc	r25
    1d2e:	02 c0       	rjmp	.+4      	; 0x1d34 <__fp_mintl>
    1d30:	1c c0       	rjmp	.+56     	; 0x1d6a <__fp_mpack>
    1d32:	77 cf       	rjmp	.-274    	; 0x1c22 <__fp_szero>

00001d34 <__fp_mintl>:
    1d34:	88 23       	and	r24, r24
    1d36:	71 f4       	brne	.+28     	; 0x1d54 <__fp_mintl+0x20>
    1d38:	77 23       	and	r23, r23
    1d3a:	21 f0       	breq	.+8      	; 0x1d44 <__fp_mintl+0x10>
    1d3c:	98 50       	subi	r25, 0x08	; 8
    1d3e:	87 2b       	or	r24, r23
    1d40:	76 2f       	mov	r23, r22
    1d42:	07 c0       	rjmp	.+14     	; 0x1d52 <__fp_mintl+0x1e>
    1d44:	66 23       	and	r22, r22
    1d46:	11 f4       	brne	.+4      	; 0x1d4c <__fp_mintl+0x18>
    1d48:	99 27       	eor	r25, r25
    1d4a:	0d c0       	rjmp	.+26     	; 0x1d66 <__fp_mintl+0x32>
    1d4c:	90 51       	subi	r25, 0x10	; 16
    1d4e:	86 2b       	or	r24, r22
    1d50:	70 e0       	ldi	r23, 0x00	; 0
    1d52:	60 e0       	ldi	r22, 0x00	; 0
    1d54:	2a f0       	brmi	.+10     	; 0x1d60 <__fp_mintl+0x2c>
    1d56:	9a 95       	dec	r25
    1d58:	66 0f       	add	r22, r22
    1d5a:	77 1f       	adc	r23, r23
    1d5c:	88 1f       	adc	r24, r24
    1d5e:	da f7       	brpl	.-10     	; 0x1d56 <__fp_mintl+0x22>
    1d60:	88 0f       	add	r24, r24
    1d62:	96 95       	lsr	r25
    1d64:	87 95       	ror	r24
    1d66:	97 f9       	bld	r25, 7
    1d68:	08 95       	ret

00001d6a <__fp_mpack>:
    1d6a:	9f 3f       	cpi	r25, 0xFF	; 255
    1d6c:	31 f0       	breq	.+12     	; 0x1d7a <__fp_mpack_finite+0xc>

00001d6e <__fp_mpack_finite>:
    1d6e:	91 50       	subi	r25, 0x01	; 1
    1d70:	20 f4       	brcc	.+8      	; 0x1d7a <__fp_mpack_finite+0xc>
    1d72:	87 95       	ror	r24
    1d74:	77 95       	ror	r23
    1d76:	67 95       	ror	r22
    1d78:	b7 95       	ror	r27
    1d7a:	88 0f       	add	r24, r24
    1d7c:	91 1d       	adc	r25, r1
    1d7e:	96 95       	lsr	r25
    1d80:	87 95       	ror	r24
    1d82:	97 f9       	bld	r25, 7
    1d84:	08 95       	ret

00001d86 <__divmodhi4>:
    1d86:	97 fb       	bst	r25, 7
    1d88:	07 2e       	mov	r0, r23
    1d8a:	16 f4       	brtc	.+4      	; 0x1d90 <__divmodhi4+0xa>
    1d8c:	00 94       	com	r0
    1d8e:	06 d0       	rcall	.+12     	; 0x1d9c <__divmodhi4_neg1>
    1d90:	77 fd       	sbrc	r23, 7
    1d92:	08 d0       	rcall	.+16     	; 0x1da4 <__divmodhi4_neg2>
    1d94:	30 d0       	rcall	.+96     	; 0x1df6 <__udivmodhi4>
    1d96:	07 fc       	sbrc	r0, 7
    1d98:	05 d0       	rcall	.+10     	; 0x1da4 <__divmodhi4_neg2>
    1d9a:	3e f4       	brtc	.+14     	; 0x1daa <__divmodhi4_exit>

00001d9c <__divmodhi4_neg1>:
    1d9c:	90 95       	com	r25
    1d9e:	81 95       	neg	r24
    1da0:	9f 4f       	sbci	r25, 0xFF	; 255
    1da2:	08 95       	ret

00001da4 <__divmodhi4_neg2>:
    1da4:	70 95       	com	r23
    1da6:	61 95       	neg	r22
    1da8:	7f 4f       	sbci	r23, 0xFF	; 255

00001daa <__divmodhi4_exit>:
    1daa:	08 95       	ret

00001dac <__divmodsi4>:
    1dac:	05 2e       	mov	r0, r21
    1dae:	97 fb       	bst	r25, 7
    1db0:	16 f4       	brtc	.+4      	; 0x1db6 <__divmodsi4+0xa>
    1db2:	00 94       	com	r0
    1db4:	0f d0       	rcall	.+30     	; 0x1dd4 <__negsi2>
    1db6:	57 fd       	sbrc	r21, 7
    1db8:	05 d0       	rcall	.+10     	; 0x1dc4 <__divmodsi4_neg2>
    1dba:	31 d0       	rcall	.+98     	; 0x1e1e <__udivmodsi4>
    1dbc:	07 fc       	sbrc	r0, 7
    1dbe:	02 d0       	rcall	.+4      	; 0x1dc4 <__divmodsi4_neg2>
    1dc0:	46 f4       	brtc	.+16     	; 0x1dd2 <__divmodsi4_exit>
    1dc2:	08 c0       	rjmp	.+16     	; 0x1dd4 <__negsi2>

00001dc4 <__divmodsi4_neg2>:
    1dc4:	50 95       	com	r21
    1dc6:	40 95       	com	r20
    1dc8:	30 95       	com	r19
    1dca:	21 95       	neg	r18
    1dcc:	3f 4f       	sbci	r19, 0xFF	; 255
    1dce:	4f 4f       	sbci	r20, 0xFF	; 255
    1dd0:	5f 4f       	sbci	r21, 0xFF	; 255

00001dd2 <__divmodsi4_exit>:
    1dd2:	08 95       	ret

00001dd4 <__negsi2>:
    1dd4:	90 95       	com	r25
    1dd6:	80 95       	com	r24
    1dd8:	70 95       	com	r23
    1dda:	61 95       	neg	r22
    1ddc:	7f 4f       	sbci	r23, 0xFF	; 255
    1dde:	8f 4f       	sbci	r24, 0xFF	; 255
    1de0:	9f 4f       	sbci	r25, 0xFF	; 255
    1de2:	08 95       	ret

00001de4 <__tablejump2__>:
    1de4:	ee 0f       	add	r30, r30
    1de6:	ff 1f       	adc	r31, r31
    1de8:	00 24       	eor	r0, r0
    1dea:	00 1c       	adc	r0, r0
    1dec:	0b be       	out	0x3b, r0	; 59
    1dee:	07 90       	elpm	r0, Z+
    1df0:	f6 91       	elpm	r31, Z
    1df2:	e0 2d       	mov	r30, r0
    1df4:	09 94       	ijmp

00001df6 <__udivmodhi4>:
    1df6:	aa 1b       	sub	r26, r26
    1df8:	bb 1b       	sub	r27, r27
    1dfa:	51 e1       	ldi	r21, 0x11	; 17
    1dfc:	07 c0       	rjmp	.+14     	; 0x1e0c <__udivmodhi4_ep>

00001dfe <__udivmodhi4_loop>:
    1dfe:	aa 1f       	adc	r26, r26
    1e00:	bb 1f       	adc	r27, r27
    1e02:	a6 17       	cp	r26, r22
    1e04:	b7 07       	cpc	r27, r23
    1e06:	10 f0       	brcs	.+4      	; 0x1e0c <__udivmodhi4_ep>
    1e08:	a6 1b       	sub	r26, r22
    1e0a:	b7 0b       	sbc	r27, r23

00001e0c <__udivmodhi4_ep>:
    1e0c:	88 1f       	adc	r24, r24
    1e0e:	99 1f       	adc	r25, r25
    1e10:	5a 95       	dec	r21
    1e12:	a9 f7       	brne	.-22     	; 0x1dfe <__udivmodhi4_loop>
    1e14:	80 95       	com	r24
    1e16:	90 95       	com	r25
    1e18:	bc 01       	movw	r22, r24
    1e1a:	cd 01       	movw	r24, r26
    1e1c:	08 95       	ret

00001e1e <__udivmodsi4>:
    1e1e:	a1 e2       	ldi	r26, 0x21	; 33
    1e20:	1a 2e       	mov	r1, r26
    1e22:	aa 1b       	sub	r26, r26
    1e24:	bb 1b       	sub	r27, r27
    1e26:	fd 01       	movw	r30, r26
    1e28:	0d c0       	rjmp	.+26     	; 0x1e44 <__udivmodsi4_ep>

00001e2a <__udivmodsi4_loop>:
    1e2a:	aa 1f       	adc	r26, r26
    1e2c:	bb 1f       	adc	r27, r27
    1e2e:	ee 1f       	adc	r30, r30
    1e30:	ff 1f       	adc	r31, r31
    1e32:	a2 17       	cp	r26, r18
    1e34:	b3 07       	cpc	r27, r19
    1e36:	e4 07       	cpc	r30, r20
    1e38:	f5 07       	cpc	r31, r21
    1e3a:	20 f0       	brcs	.+8      	; 0x1e44 <__udivmodsi4_ep>
    1e3c:	a2 1b       	sub	r26, r18
    1e3e:	b3 0b       	sbc	r27, r19
    1e40:	e4 0b       	sbc	r30, r20
    1e42:	f5 0b       	sbc	r31, r21

00001e44 <__udivmodsi4_ep>:
    1e44:	66 1f       	adc	r22, r22
    1e46:	77 1f       	adc	r23, r23
    1e48:	88 1f       	adc	r24, r24
    1e4a:	99 1f       	adc	r25, r25
    1e4c:	1a 94       	dec	r1
    1e4e:	69 f7       	brne	.-38     	; 0x1e2a <__udivmodsi4_loop>
    1e50:	60 95       	com	r22
    1e52:	70 95       	com	r23
    1e54:	80 95       	com	r24
    1e56:	90 95       	com	r25
    1e58:	9b 01       	movw	r18, r22
    1e5a:	ac 01       	movw	r20, r24
    1e5c:	bd 01       	movw	r22, r26
    1e5e:	cf 01       	movw	r24, r30
    1e60:	08 95       	ret

00001e62 <fprintf>:
    1e62:	cf 93       	push	r28
    1e64:	df 93       	push	r29
    1e66:	cd b7       	in	r28, 0x3d	; 61
    1e68:	de b7       	in	r29, 0x3e	; 62
    1e6a:	ae 01       	movw	r20, r28
    1e6c:	47 5f       	subi	r20, 0xF7	; 247
    1e6e:	5f 4f       	sbci	r21, 0xFF	; 255
    1e70:	6f 81       	ldd	r22, Y+7	; 0x07
    1e72:	78 85       	ldd	r23, Y+8	; 0x08
    1e74:	8d 81       	ldd	r24, Y+5	; 0x05
    1e76:	9e 81       	ldd	r25, Y+6	; 0x06
    1e78:	77 d0       	rcall	.+238    	; 0x1f68 <vfprintf>
    1e7a:	df 91       	pop	r29
    1e7c:	cf 91       	pop	r28
    1e7e:	08 95       	ret

00001e80 <fputs>:
    1e80:	ef 92       	push	r14
    1e82:	ff 92       	push	r15
    1e84:	0f 93       	push	r16
    1e86:	1f 93       	push	r17
    1e88:	cf 93       	push	r28
    1e8a:	df 93       	push	r29
    1e8c:	db 01       	movw	r26, r22
    1e8e:	13 96       	adiw	r26, 0x03	; 3
    1e90:	2c 91       	ld	r18, X
    1e92:	21 ff       	sbrs	r18, 1
    1e94:	18 c0       	rjmp	.+48     	; 0x1ec6 <fputs+0x46>
    1e96:	8b 01       	movw	r16, r22
    1e98:	7c 01       	movw	r14, r24
    1e9a:	d0 e0       	ldi	r29, 0x00	; 0
    1e9c:	c0 e0       	ldi	r28, 0x00	; 0
    1e9e:	f7 01       	movw	r30, r14
    1ea0:	81 91       	ld	r24, Z+
    1ea2:	7f 01       	movw	r14, r30
    1ea4:	88 23       	and	r24, r24
    1ea6:	61 f0       	breq	.+24     	; 0x1ec0 <fputs+0x40>
    1ea8:	d8 01       	movw	r26, r16
    1eaa:	18 96       	adiw	r26, 0x08	; 8
    1eac:	ed 91       	ld	r30, X+
    1eae:	fc 91       	ld	r31, X
    1eb0:	19 97       	sbiw	r26, 0x09	; 9
    1eb2:	b8 01       	movw	r22, r16
    1eb4:	09 95       	icall
    1eb6:	89 2b       	or	r24, r25
    1eb8:	91 f3       	breq	.-28     	; 0x1e9e <fputs+0x1e>
    1eba:	df ef       	ldi	r29, 0xFF	; 255
    1ebc:	cf ef       	ldi	r28, 0xFF	; 255
    1ebe:	ef cf       	rjmp	.-34     	; 0x1e9e <fputs+0x1e>
    1ec0:	8d 2f       	mov	r24, r29
    1ec2:	9c 2f       	mov	r25, r28
    1ec4:	02 c0       	rjmp	.+4      	; 0x1eca <fputs+0x4a>
    1ec6:	8f ef       	ldi	r24, 0xFF	; 255
    1ec8:	9f ef       	ldi	r25, 0xFF	; 255
    1eca:	df 91       	pop	r29
    1ecc:	cf 91       	pop	r28
    1ece:	1f 91       	pop	r17
    1ed0:	0f 91       	pop	r16
    1ed2:	ff 90       	pop	r15
    1ed4:	ef 90       	pop	r14
    1ed6:	08 95       	ret

00001ed8 <printf_P>:
    1ed8:	0f 93       	push	r16
    1eda:	1f 93       	push	r17
    1edc:	cf 93       	push	r28
    1ede:	df 93       	push	r29
    1ee0:	cd b7       	in	r28, 0x3d	; 61
    1ee2:	de b7       	in	r29, 0x3e	; 62
    1ee4:	ae 01       	movw	r20, r28
    1ee6:	49 5f       	subi	r20, 0xF9	; 249
    1ee8:	5f 4f       	sbci	r21, 0xFF	; 255
    1eea:	da 01       	movw	r26, r20
    1eec:	6d 91       	ld	r22, X+
    1eee:	7d 91       	ld	r23, X+
    1ef0:	ad 01       	movw	r20, r26
    1ef2:	0b e1       	ldi	r16, 0x1B	; 27
    1ef4:	14 e0       	ldi	r17, 0x04	; 4
    1ef6:	f8 01       	movw	r30, r16
    1ef8:	82 81       	ldd	r24, Z+2	; 0x02
    1efa:	93 81       	ldd	r25, Z+3	; 0x03
    1efc:	dc 01       	movw	r26, r24
    1efe:	13 96       	adiw	r26, 0x03	; 3
    1f00:	2c 91       	ld	r18, X
    1f02:	13 97       	sbiw	r26, 0x03	; 3
    1f04:	28 60       	ori	r18, 0x08	; 8
    1f06:	13 96       	adiw	r26, 0x03	; 3
    1f08:	2c 93       	st	X, r18
    1f0a:	2e d0       	rcall	.+92     	; 0x1f68 <vfprintf>
    1f0c:	d8 01       	movw	r26, r16
    1f0e:	12 96       	adiw	r26, 0x02	; 2
    1f10:	ed 91       	ld	r30, X+
    1f12:	fc 91       	ld	r31, X
    1f14:	13 97       	sbiw	r26, 0x03	; 3
    1f16:	23 81       	ldd	r18, Z+3	; 0x03
    1f18:	27 7f       	andi	r18, 0xF7	; 247
    1f1a:	23 83       	std	Z+3, r18	; 0x03
    1f1c:	df 91       	pop	r29
    1f1e:	cf 91       	pop	r28
    1f20:	1f 91       	pop	r17
    1f22:	0f 91       	pop	r16
    1f24:	08 95       	ret

00001f26 <sscanf_P>:
    1f26:	cf 93       	push	r28
    1f28:	df 93       	push	r29
    1f2a:	cd b7       	in	r28, 0x3d	; 61
    1f2c:	de b7       	in	r29, 0x3e	; 62
    1f2e:	2e 97       	sbiw	r28, 0x0e	; 14
    1f30:	0f b6       	in	r0, 0x3f	; 63
    1f32:	f8 94       	cli
    1f34:	de bf       	out	0x3e, r29	; 62
    1f36:	0f be       	out	0x3f, r0	; 63
    1f38:	cd bf       	out	0x3d, r28	; 61
    1f3a:	8d e0       	ldi	r24, 0x0D	; 13
    1f3c:	8c 83       	std	Y+4, r24	; 0x04
    1f3e:	8b 89       	ldd	r24, Y+19	; 0x13
    1f40:	9c 89       	ldd	r25, Y+20	; 0x14
    1f42:	9a 83       	std	Y+2, r25	; 0x02
    1f44:	89 83       	std	Y+1, r24	; 0x01
    1f46:	ae 01       	movw	r20, r28
    1f48:	49 5e       	subi	r20, 0xE9	; 233
    1f4a:	5f 4f       	sbci	r21, 0xFF	; 255
    1f4c:	6d 89       	ldd	r22, Y+21	; 0x15
    1f4e:	7e 89       	ldd	r23, Y+22	; 0x16
    1f50:	ce 01       	movw	r24, r28
    1f52:	01 96       	adiw	r24, 0x01	; 1
    1f54:	b8 d3       	rcall	.+1904   	; 0x26c6 <vfscanf>
    1f56:	2e 96       	adiw	r28, 0x0e	; 14
    1f58:	0f b6       	in	r0, 0x3f	; 63
    1f5a:	f8 94       	cli
    1f5c:	de bf       	out	0x3e, r29	; 62
    1f5e:	0f be       	out	0x3f, r0	; 63
    1f60:	cd bf       	out	0x3d, r28	; 61
    1f62:	df 91       	pop	r29
    1f64:	cf 91       	pop	r28
    1f66:	08 95       	ret

00001f68 <vfprintf>:
    1f68:	2f 92       	push	r2
    1f6a:	3f 92       	push	r3
    1f6c:	4f 92       	push	r4
    1f6e:	5f 92       	push	r5
    1f70:	6f 92       	push	r6
    1f72:	7f 92       	push	r7
    1f74:	8f 92       	push	r8
    1f76:	9f 92       	push	r9
    1f78:	af 92       	push	r10
    1f7a:	bf 92       	push	r11
    1f7c:	cf 92       	push	r12
    1f7e:	df 92       	push	r13
    1f80:	ef 92       	push	r14
    1f82:	ff 92       	push	r15
    1f84:	0f 93       	push	r16
    1f86:	1f 93       	push	r17
    1f88:	cf 93       	push	r28
    1f8a:	df 93       	push	r29
    1f8c:	cd b7       	in	r28, 0x3d	; 61
    1f8e:	de b7       	in	r29, 0x3e	; 62
    1f90:	2b 97       	sbiw	r28, 0x0b	; 11
    1f92:	0f b6       	in	r0, 0x3f	; 63
    1f94:	f8 94       	cli
    1f96:	de bf       	out	0x3e, r29	; 62
    1f98:	0f be       	out	0x3f, r0	; 63
    1f9a:	cd bf       	out	0x3d, r28	; 61
    1f9c:	6c 01       	movw	r12, r24
    1f9e:	7b 01       	movw	r14, r22
    1fa0:	8a 01       	movw	r16, r20
    1fa2:	fc 01       	movw	r30, r24
    1fa4:	17 82       	std	Z+7, r1	; 0x07
    1fa6:	16 82       	std	Z+6, r1	; 0x06
    1fa8:	83 81       	ldd	r24, Z+3	; 0x03
    1faa:	81 ff       	sbrs	r24, 1
    1fac:	bf c1       	rjmp	.+894    	; 0x232c <vfprintf+0x3c4>
    1fae:	ce 01       	movw	r24, r28
    1fb0:	01 96       	adiw	r24, 0x01	; 1
    1fb2:	3c 01       	movw	r6, r24
    1fb4:	f6 01       	movw	r30, r12
    1fb6:	93 81       	ldd	r25, Z+3	; 0x03
    1fb8:	f7 01       	movw	r30, r14
    1fba:	93 fd       	sbrc	r25, 3
    1fbc:	85 91       	lpm	r24, Z+
    1fbe:	93 ff       	sbrs	r25, 3
    1fc0:	81 91       	ld	r24, Z+
    1fc2:	7f 01       	movw	r14, r30
    1fc4:	88 23       	and	r24, r24
    1fc6:	09 f4       	brne	.+2      	; 0x1fca <vfprintf+0x62>
    1fc8:	ad c1       	rjmp	.+858    	; 0x2324 <vfprintf+0x3bc>
    1fca:	85 32       	cpi	r24, 0x25	; 37
    1fcc:	39 f4       	brne	.+14     	; 0x1fdc <vfprintf+0x74>
    1fce:	93 fd       	sbrc	r25, 3
    1fd0:	85 91       	lpm	r24, Z+
    1fd2:	93 ff       	sbrs	r25, 3
    1fd4:	81 91       	ld	r24, Z+
    1fd6:	7f 01       	movw	r14, r30
    1fd8:	85 32       	cpi	r24, 0x25	; 37
    1fda:	21 f4       	brne	.+8      	; 0x1fe4 <vfprintf+0x7c>
    1fdc:	b6 01       	movw	r22, r12
    1fde:	90 e0       	ldi	r25, 0x00	; 0
    1fe0:	f0 d4       	rcall	.+2528   	; 0x29c2 <fputc>
    1fe2:	e8 cf       	rjmp	.-48     	; 0x1fb4 <vfprintf+0x4c>
    1fe4:	91 2c       	mov	r9, r1
    1fe6:	21 2c       	mov	r2, r1
    1fe8:	31 2c       	mov	r3, r1
    1fea:	ff e1       	ldi	r31, 0x1F	; 31
    1fec:	f3 15       	cp	r31, r3
    1fee:	d8 f0       	brcs	.+54     	; 0x2026 <vfprintf+0xbe>
    1ff0:	8b 32       	cpi	r24, 0x2B	; 43
    1ff2:	79 f0       	breq	.+30     	; 0x2012 <vfprintf+0xaa>
    1ff4:	38 f4       	brcc	.+14     	; 0x2004 <vfprintf+0x9c>
    1ff6:	80 32       	cpi	r24, 0x20	; 32
    1ff8:	79 f0       	breq	.+30     	; 0x2018 <vfprintf+0xb0>
    1ffa:	83 32       	cpi	r24, 0x23	; 35
    1ffc:	a1 f4       	brne	.+40     	; 0x2026 <vfprintf+0xbe>
    1ffe:	23 2d       	mov	r18, r3
    2000:	20 61       	ori	r18, 0x10	; 16
    2002:	1d c0       	rjmp	.+58     	; 0x203e <vfprintf+0xd6>
    2004:	8d 32       	cpi	r24, 0x2D	; 45
    2006:	61 f0       	breq	.+24     	; 0x2020 <vfprintf+0xb8>
    2008:	80 33       	cpi	r24, 0x30	; 48
    200a:	69 f4       	brne	.+26     	; 0x2026 <vfprintf+0xbe>
    200c:	23 2d       	mov	r18, r3
    200e:	21 60       	ori	r18, 0x01	; 1
    2010:	16 c0       	rjmp	.+44     	; 0x203e <vfprintf+0xd6>
    2012:	83 2d       	mov	r24, r3
    2014:	82 60       	ori	r24, 0x02	; 2
    2016:	38 2e       	mov	r3, r24
    2018:	e3 2d       	mov	r30, r3
    201a:	e4 60       	ori	r30, 0x04	; 4
    201c:	3e 2e       	mov	r3, r30
    201e:	2a c0       	rjmp	.+84     	; 0x2074 <vfprintf+0x10c>
    2020:	f3 2d       	mov	r31, r3
    2022:	f8 60       	ori	r31, 0x08	; 8
    2024:	1d c0       	rjmp	.+58     	; 0x2060 <vfprintf+0xf8>
    2026:	37 fc       	sbrc	r3, 7
    2028:	2d c0       	rjmp	.+90     	; 0x2084 <vfprintf+0x11c>
    202a:	20 ed       	ldi	r18, 0xD0	; 208
    202c:	28 0f       	add	r18, r24
    202e:	2a 30       	cpi	r18, 0x0A	; 10
    2030:	40 f0       	brcs	.+16     	; 0x2042 <vfprintf+0xda>
    2032:	8e 32       	cpi	r24, 0x2E	; 46
    2034:	b9 f4       	brne	.+46     	; 0x2064 <vfprintf+0xfc>
    2036:	36 fc       	sbrc	r3, 6
    2038:	75 c1       	rjmp	.+746    	; 0x2324 <vfprintf+0x3bc>
    203a:	23 2d       	mov	r18, r3
    203c:	20 64       	ori	r18, 0x40	; 64
    203e:	32 2e       	mov	r3, r18
    2040:	19 c0       	rjmp	.+50     	; 0x2074 <vfprintf+0x10c>
    2042:	36 fe       	sbrs	r3, 6
    2044:	06 c0       	rjmp	.+12     	; 0x2052 <vfprintf+0xea>
    2046:	8a e0       	ldi	r24, 0x0A	; 10
    2048:	98 9e       	mul	r9, r24
    204a:	20 0d       	add	r18, r0
    204c:	11 24       	eor	r1, r1
    204e:	92 2e       	mov	r9, r18
    2050:	11 c0       	rjmp	.+34     	; 0x2074 <vfprintf+0x10c>
    2052:	ea e0       	ldi	r30, 0x0A	; 10
    2054:	2e 9e       	mul	r2, r30
    2056:	20 0d       	add	r18, r0
    2058:	11 24       	eor	r1, r1
    205a:	22 2e       	mov	r2, r18
    205c:	f3 2d       	mov	r31, r3
    205e:	f0 62       	ori	r31, 0x20	; 32
    2060:	3f 2e       	mov	r3, r31
    2062:	08 c0       	rjmp	.+16     	; 0x2074 <vfprintf+0x10c>
    2064:	8c 36       	cpi	r24, 0x6C	; 108
    2066:	21 f4       	brne	.+8      	; 0x2070 <vfprintf+0x108>
    2068:	83 2d       	mov	r24, r3
    206a:	80 68       	ori	r24, 0x80	; 128
    206c:	38 2e       	mov	r3, r24
    206e:	02 c0       	rjmp	.+4      	; 0x2074 <vfprintf+0x10c>
    2070:	88 36       	cpi	r24, 0x68	; 104
    2072:	41 f4       	brne	.+16     	; 0x2084 <vfprintf+0x11c>
    2074:	f7 01       	movw	r30, r14
    2076:	93 fd       	sbrc	r25, 3
    2078:	85 91       	lpm	r24, Z+
    207a:	93 ff       	sbrs	r25, 3
    207c:	81 91       	ld	r24, Z+
    207e:	7f 01       	movw	r14, r30
    2080:	81 11       	cpse	r24, r1
    2082:	b3 cf       	rjmp	.-154    	; 0x1fea <vfprintf+0x82>
    2084:	98 2f       	mov	r25, r24
    2086:	9f 7d       	andi	r25, 0xDF	; 223
    2088:	95 54       	subi	r25, 0x45	; 69
    208a:	93 30       	cpi	r25, 0x03	; 3
    208c:	28 f4       	brcc	.+10     	; 0x2098 <vfprintf+0x130>
    208e:	0c 5f       	subi	r16, 0xFC	; 252
    2090:	1f 4f       	sbci	r17, 0xFF	; 255
    2092:	9f e3       	ldi	r25, 0x3F	; 63
    2094:	99 83       	std	Y+1, r25	; 0x01
    2096:	0d c0       	rjmp	.+26     	; 0x20b2 <vfprintf+0x14a>
    2098:	83 36       	cpi	r24, 0x63	; 99
    209a:	31 f0       	breq	.+12     	; 0x20a8 <vfprintf+0x140>
    209c:	83 37       	cpi	r24, 0x73	; 115
    209e:	71 f0       	breq	.+28     	; 0x20bc <vfprintf+0x154>
    20a0:	83 35       	cpi	r24, 0x53	; 83
    20a2:	09 f0       	breq	.+2      	; 0x20a6 <vfprintf+0x13e>
    20a4:	55 c0       	rjmp	.+170    	; 0x2150 <vfprintf+0x1e8>
    20a6:	20 c0       	rjmp	.+64     	; 0x20e8 <vfprintf+0x180>
    20a8:	f8 01       	movw	r30, r16
    20aa:	80 81       	ld	r24, Z
    20ac:	89 83       	std	Y+1, r24	; 0x01
    20ae:	0e 5f       	subi	r16, 0xFE	; 254
    20b0:	1f 4f       	sbci	r17, 0xFF	; 255
    20b2:	88 24       	eor	r8, r8
    20b4:	83 94       	inc	r8
    20b6:	91 2c       	mov	r9, r1
    20b8:	53 01       	movw	r10, r6
    20ba:	12 c0       	rjmp	.+36     	; 0x20e0 <vfprintf+0x178>
    20bc:	28 01       	movw	r4, r16
    20be:	f2 e0       	ldi	r31, 0x02	; 2
    20c0:	4f 0e       	add	r4, r31
    20c2:	51 1c       	adc	r5, r1
    20c4:	f8 01       	movw	r30, r16
    20c6:	a0 80       	ld	r10, Z
    20c8:	b1 80       	ldd	r11, Z+1	; 0x01
    20ca:	36 fe       	sbrs	r3, 6
    20cc:	03 c0       	rjmp	.+6      	; 0x20d4 <vfprintf+0x16c>
    20ce:	69 2d       	mov	r22, r9
    20d0:	70 e0       	ldi	r23, 0x00	; 0
    20d2:	02 c0       	rjmp	.+4      	; 0x20d8 <vfprintf+0x170>
    20d4:	6f ef       	ldi	r22, 0xFF	; 255
    20d6:	7f ef       	ldi	r23, 0xFF	; 255
    20d8:	c5 01       	movw	r24, r10
    20da:	2a d4       	rcall	.+2132   	; 0x2930 <strnlen>
    20dc:	4c 01       	movw	r8, r24
    20de:	82 01       	movw	r16, r4
    20e0:	f3 2d       	mov	r31, r3
    20e2:	ff 77       	andi	r31, 0x7F	; 127
    20e4:	3f 2e       	mov	r3, r31
    20e6:	15 c0       	rjmp	.+42     	; 0x2112 <vfprintf+0x1aa>
    20e8:	28 01       	movw	r4, r16
    20ea:	22 e0       	ldi	r18, 0x02	; 2
    20ec:	42 0e       	add	r4, r18
    20ee:	51 1c       	adc	r5, r1
    20f0:	f8 01       	movw	r30, r16
    20f2:	a0 80       	ld	r10, Z
    20f4:	b1 80       	ldd	r11, Z+1	; 0x01
    20f6:	36 fe       	sbrs	r3, 6
    20f8:	03 c0       	rjmp	.+6      	; 0x2100 <vfprintf+0x198>
    20fa:	69 2d       	mov	r22, r9
    20fc:	70 e0       	ldi	r23, 0x00	; 0
    20fe:	02 c0       	rjmp	.+4      	; 0x2104 <vfprintf+0x19c>
    2100:	6f ef       	ldi	r22, 0xFF	; 255
    2102:	7f ef       	ldi	r23, 0xFF	; 255
    2104:	c5 01       	movw	r24, r10
    2106:	09 d4       	rcall	.+2066   	; 0x291a <strnlen_P>
    2108:	4c 01       	movw	r8, r24
    210a:	f3 2d       	mov	r31, r3
    210c:	f0 68       	ori	r31, 0x80	; 128
    210e:	3f 2e       	mov	r3, r31
    2110:	82 01       	movw	r16, r4
    2112:	33 fc       	sbrc	r3, 3
    2114:	19 c0       	rjmp	.+50     	; 0x2148 <vfprintf+0x1e0>
    2116:	82 2d       	mov	r24, r2
    2118:	90 e0       	ldi	r25, 0x00	; 0
    211a:	88 16       	cp	r8, r24
    211c:	99 06       	cpc	r9, r25
    211e:	a0 f4       	brcc	.+40     	; 0x2148 <vfprintf+0x1e0>
    2120:	b6 01       	movw	r22, r12
    2122:	80 e2       	ldi	r24, 0x20	; 32
    2124:	90 e0       	ldi	r25, 0x00	; 0
    2126:	4d d4       	rcall	.+2202   	; 0x29c2 <fputc>
    2128:	2a 94       	dec	r2
    212a:	f5 cf       	rjmp	.-22     	; 0x2116 <vfprintf+0x1ae>
    212c:	f5 01       	movw	r30, r10
    212e:	37 fc       	sbrc	r3, 7
    2130:	85 91       	lpm	r24, Z+
    2132:	37 fe       	sbrs	r3, 7
    2134:	81 91       	ld	r24, Z+
    2136:	5f 01       	movw	r10, r30
    2138:	b6 01       	movw	r22, r12
    213a:	90 e0       	ldi	r25, 0x00	; 0
    213c:	42 d4       	rcall	.+2180   	; 0x29c2 <fputc>
    213e:	21 10       	cpse	r2, r1
    2140:	2a 94       	dec	r2
    2142:	21 e0       	ldi	r18, 0x01	; 1
    2144:	82 1a       	sub	r8, r18
    2146:	91 08       	sbc	r9, r1
    2148:	81 14       	cp	r8, r1
    214a:	91 04       	cpc	r9, r1
    214c:	79 f7       	brne	.-34     	; 0x212c <vfprintf+0x1c4>
    214e:	e1 c0       	rjmp	.+450    	; 0x2312 <vfprintf+0x3aa>
    2150:	84 36       	cpi	r24, 0x64	; 100
    2152:	11 f0       	breq	.+4      	; 0x2158 <vfprintf+0x1f0>
    2154:	89 36       	cpi	r24, 0x69	; 105
    2156:	39 f5       	brne	.+78     	; 0x21a6 <vfprintf+0x23e>
    2158:	f8 01       	movw	r30, r16
    215a:	37 fe       	sbrs	r3, 7
    215c:	07 c0       	rjmp	.+14     	; 0x216c <vfprintf+0x204>
    215e:	60 81       	ld	r22, Z
    2160:	71 81       	ldd	r23, Z+1	; 0x01
    2162:	82 81       	ldd	r24, Z+2	; 0x02
    2164:	93 81       	ldd	r25, Z+3	; 0x03
    2166:	0c 5f       	subi	r16, 0xFC	; 252
    2168:	1f 4f       	sbci	r17, 0xFF	; 255
    216a:	08 c0       	rjmp	.+16     	; 0x217c <vfprintf+0x214>
    216c:	60 81       	ld	r22, Z
    216e:	71 81       	ldd	r23, Z+1	; 0x01
    2170:	07 2e       	mov	r0, r23
    2172:	00 0c       	add	r0, r0
    2174:	88 0b       	sbc	r24, r24
    2176:	99 0b       	sbc	r25, r25
    2178:	0e 5f       	subi	r16, 0xFE	; 254
    217a:	1f 4f       	sbci	r17, 0xFF	; 255
    217c:	f3 2d       	mov	r31, r3
    217e:	ff 76       	andi	r31, 0x6F	; 111
    2180:	3f 2e       	mov	r3, r31
    2182:	97 ff       	sbrs	r25, 7
    2184:	09 c0       	rjmp	.+18     	; 0x2198 <vfprintf+0x230>
    2186:	90 95       	com	r25
    2188:	80 95       	com	r24
    218a:	70 95       	com	r23
    218c:	61 95       	neg	r22
    218e:	7f 4f       	sbci	r23, 0xFF	; 255
    2190:	8f 4f       	sbci	r24, 0xFF	; 255
    2192:	9f 4f       	sbci	r25, 0xFF	; 255
    2194:	f0 68       	ori	r31, 0x80	; 128
    2196:	3f 2e       	mov	r3, r31
    2198:	2a e0       	ldi	r18, 0x0A	; 10
    219a:	30 e0       	ldi	r19, 0x00	; 0
    219c:	a3 01       	movw	r20, r6
    219e:	66 d4       	rcall	.+2252   	; 0x2a6c <__ultoa_invert>
    21a0:	88 2e       	mov	r8, r24
    21a2:	86 18       	sub	r8, r6
    21a4:	44 c0       	rjmp	.+136    	; 0x222e <vfprintf+0x2c6>
    21a6:	85 37       	cpi	r24, 0x75	; 117
    21a8:	31 f4       	brne	.+12     	; 0x21b6 <vfprintf+0x24e>
    21aa:	23 2d       	mov	r18, r3
    21ac:	2f 7e       	andi	r18, 0xEF	; 239
    21ae:	b2 2e       	mov	r11, r18
    21b0:	2a e0       	ldi	r18, 0x0A	; 10
    21b2:	30 e0       	ldi	r19, 0x00	; 0
    21b4:	25 c0       	rjmp	.+74     	; 0x2200 <vfprintf+0x298>
    21b6:	93 2d       	mov	r25, r3
    21b8:	99 7f       	andi	r25, 0xF9	; 249
    21ba:	b9 2e       	mov	r11, r25
    21bc:	8f 36       	cpi	r24, 0x6F	; 111
    21be:	c1 f0       	breq	.+48     	; 0x21f0 <vfprintf+0x288>
    21c0:	18 f4       	brcc	.+6      	; 0x21c8 <vfprintf+0x260>
    21c2:	88 35       	cpi	r24, 0x58	; 88
    21c4:	79 f0       	breq	.+30     	; 0x21e4 <vfprintf+0x27c>
    21c6:	ae c0       	rjmp	.+348    	; 0x2324 <vfprintf+0x3bc>
    21c8:	80 37       	cpi	r24, 0x70	; 112
    21ca:	19 f0       	breq	.+6      	; 0x21d2 <vfprintf+0x26a>
    21cc:	88 37       	cpi	r24, 0x78	; 120
    21ce:	21 f0       	breq	.+8      	; 0x21d8 <vfprintf+0x270>
    21d0:	a9 c0       	rjmp	.+338    	; 0x2324 <vfprintf+0x3bc>
    21d2:	e9 2f       	mov	r30, r25
    21d4:	e0 61       	ori	r30, 0x10	; 16
    21d6:	be 2e       	mov	r11, r30
    21d8:	b4 fe       	sbrs	r11, 4
    21da:	0d c0       	rjmp	.+26     	; 0x21f6 <vfprintf+0x28e>
    21dc:	fb 2d       	mov	r31, r11
    21de:	f4 60       	ori	r31, 0x04	; 4
    21e0:	bf 2e       	mov	r11, r31
    21e2:	09 c0       	rjmp	.+18     	; 0x21f6 <vfprintf+0x28e>
    21e4:	34 fe       	sbrs	r3, 4
    21e6:	0a c0       	rjmp	.+20     	; 0x21fc <vfprintf+0x294>
    21e8:	29 2f       	mov	r18, r25
    21ea:	26 60       	ori	r18, 0x06	; 6
    21ec:	b2 2e       	mov	r11, r18
    21ee:	06 c0       	rjmp	.+12     	; 0x21fc <vfprintf+0x294>
    21f0:	28 e0       	ldi	r18, 0x08	; 8
    21f2:	30 e0       	ldi	r19, 0x00	; 0
    21f4:	05 c0       	rjmp	.+10     	; 0x2200 <vfprintf+0x298>
    21f6:	20 e1       	ldi	r18, 0x10	; 16
    21f8:	30 e0       	ldi	r19, 0x00	; 0
    21fa:	02 c0       	rjmp	.+4      	; 0x2200 <vfprintf+0x298>
    21fc:	20 e1       	ldi	r18, 0x10	; 16
    21fe:	32 e0       	ldi	r19, 0x02	; 2
    2200:	f8 01       	movw	r30, r16
    2202:	b7 fe       	sbrs	r11, 7
    2204:	07 c0       	rjmp	.+14     	; 0x2214 <vfprintf+0x2ac>
    2206:	60 81       	ld	r22, Z
    2208:	71 81       	ldd	r23, Z+1	; 0x01
    220a:	82 81       	ldd	r24, Z+2	; 0x02
    220c:	93 81       	ldd	r25, Z+3	; 0x03
    220e:	0c 5f       	subi	r16, 0xFC	; 252
    2210:	1f 4f       	sbci	r17, 0xFF	; 255
    2212:	06 c0       	rjmp	.+12     	; 0x2220 <vfprintf+0x2b8>
    2214:	60 81       	ld	r22, Z
    2216:	71 81       	ldd	r23, Z+1	; 0x01
    2218:	80 e0       	ldi	r24, 0x00	; 0
    221a:	90 e0       	ldi	r25, 0x00	; 0
    221c:	0e 5f       	subi	r16, 0xFE	; 254
    221e:	1f 4f       	sbci	r17, 0xFF	; 255
    2220:	a3 01       	movw	r20, r6
    2222:	24 d4       	rcall	.+2120   	; 0x2a6c <__ultoa_invert>
    2224:	88 2e       	mov	r8, r24
    2226:	86 18       	sub	r8, r6
    2228:	fb 2d       	mov	r31, r11
    222a:	ff 77       	andi	r31, 0x7F	; 127
    222c:	3f 2e       	mov	r3, r31
    222e:	36 fe       	sbrs	r3, 6
    2230:	0d c0       	rjmp	.+26     	; 0x224c <vfprintf+0x2e4>
    2232:	23 2d       	mov	r18, r3
    2234:	2e 7f       	andi	r18, 0xFE	; 254
    2236:	a2 2e       	mov	r10, r18
    2238:	89 14       	cp	r8, r9
    223a:	58 f4       	brcc	.+22     	; 0x2252 <vfprintf+0x2ea>
    223c:	34 fe       	sbrs	r3, 4
    223e:	0b c0       	rjmp	.+22     	; 0x2256 <vfprintf+0x2ee>
    2240:	32 fc       	sbrc	r3, 2
    2242:	09 c0       	rjmp	.+18     	; 0x2256 <vfprintf+0x2ee>
    2244:	83 2d       	mov	r24, r3
    2246:	8e 7e       	andi	r24, 0xEE	; 238
    2248:	a8 2e       	mov	r10, r24
    224a:	05 c0       	rjmp	.+10     	; 0x2256 <vfprintf+0x2ee>
    224c:	b8 2c       	mov	r11, r8
    224e:	a3 2c       	mov	r10, r3
    2250:	03 c0       	rjmp	.+6      	; 0x2258 <vfprintf+0x2f0>
    2252:	b8 2c       	mov	r11, r8
    2254:	01 c0       	rjmp	.+2      	; 0x2258 <vfprintf+0x2f0>
    2256:	b9 2c       	mov	r11, r9
    2258:	a4 fe       	sbrs	r10, 4
    225a:	0f c0       	rjmp	.+30     	; 0x227a <vfprintf+0x312>
    225c:	fe 01       	movw	r30, r28
    225e:	e8 0d       	add	r30, r8
    2260:	f1 1d       	adc	r31, r1
    2262:	80 81       	ld	r24, Z
    2264:	80 33       	cpi	r24, 0x30	; 48
    2266:	21 f4       	brne	.+8      	; 0x2270 <vfprintf+0x308>
    2268:	9a 2d       	mov	r25, r10
    226a:	99 7e       	andi	r25, 0xE9	; 233
    226c:	a9 2e       	mov	r10, r25
    226e:	09 c0       	rjmp	.+18     	; 0x2282 <vfprintf+0x31a>
    2270:	a2 fe       	sbrs	r10, 2
    2272:	06 c0       	rjmp	.+12     	; 0x2280 <vfprintf+0x318>
    2274:	b3 94       	inc	r11
    2276:	b3 94       	inc	r11
    2278:	04 c0       	rjmp	.+8      	; 0x2282 <vfprintf+0x31a>
    227a:	8a 2d       	mov	r24, r10
    227c:	86 78       	andi	r24, 0x86	; 134
    227e:	09 f0       	breq	.+2      	; 0x2282 <vfprintf+0x31a>
    2280:	b3 94       	inc	r11
    2282:	a3 fc       	sbrc	r10, 3
    2284:	10 c0       	rjmp	.+32     	; 0x22a6 <vfprintf+0x33e>
    2286:	a0 fe       	sbrs	r10, 0
    2288:	06 c0       	rjmp	.+12     	; 0x2296 <vfprintf+0x32e>
    228a:	b2 14       	cp	r11, r2
    228c:	80 f4       	brcc	.+32     	; 0x22ae <vfprintf+0x346>
    228e:	28 0c       	add	r2, r8
    2290:	92 2c       	mov	r9, r2
    2292:	9b 18       	sub	r9, r11
    2294:	0d c0       	rjmp	.+26     	; 0x22b0 <vfprintf+0x348>
    2296:	b2 14       	cp	r11, r2
    2298:	58 f4       	brcc	.+22     	; 0x22b0 <vfprintf+0x348>
    229a:	b6 01       	movw	r22, r12
    229c:	80 e2       	ldi	r24, 0x20	; 32
    229e:	90 e0       	ldi	r25, 0x00	; 0
    22a0:	90 d3       	rcall	.+1824   	; 0x29c2 <fputc>
    22a2:	b3 94       	inc	r11
    22a4:	f8 cf       	rjmp	.-16     	; 0x2296 <vfprintf+0x32e>
    22a6:	b2 14       	cp	r11, r2
    22a8:	18 f4       	brcc	.+6      	; 0x22b0 <vfprintf+0x348>
    22aa:	2b 18       	sub	r2, r11
    22ac:	02 c0       	rjmp	.+4      	; 0x22b2 <vfprintf+0x34a>
    22ae:	98 2c       	mov	r9, r8
    22b0:	21 2c       	mov	r2, r1
    22b2:	a4 fe       	sbrs	r10, 4
    22b4:	0f c0       	rjmp	.+30     	; 0x22d4 <vfprintf+0x36c>
    22b6:	b6 01       	movw	r22, r12
    22b8:	80 e3       	ldi	r24, 0x30	; 48
    22ba:	90 e0       	ldi	r25, 0x00	; 0
    22bc:	82 d3       	rcall	.+1796   	; 0x29c2 <fputc>
    22be:	a2 fe       	sbrs	r10, 2
    22c0:	16 c0       	rjmp	.+44     	; 0x22ee <vfprintf+0x386>
    22c2:	a1 fc       	sbrc	r10, 1
    22c4:	03 c0       	rjmp	.+6      	; 0x22cc <vfprintf+0x364>
    22c6:	88 e7       	ldi	r24, 0x78	; 120
    22c8:	90 e0       	ldi	r25, 0x00	; 0
    22ca:	02 c0       	rjmp	.+4      	; 0x22d0 <vfprintf+0x368>
    22cc:	88 e5       	ldi	r24, 0x58	; 88
    22ce:	90 e0       	ldi	r25, 0x00	; 0
    22d0:	b6 01       	movw	r22, r12
    22d2:	0c c0       	rjmp	.+24     	; 0x22ec <vfprintf+0x384>
    22d4:	8a 2d       	mov	r24, r10
    22d6:	86 78       	andi	r24, 0x86	; 134
    22d8:	51 f0       	breq	.+20     	; 0x22ee <vfprintf+0x386>
    22da:	a1 fe       	sbrs	r10, 1
    22dc:	02 c0       	rjmp	.+4      	; 0x22e2 <vfprintf+0x37a>
    22de:	8b e2       	ldi	r24, 0x2B	; 43
    22e0:	01 c0       	rjmp	.+2      	; 0x22e4 <vfprintf+0x37c>
    22e2:	80 e2       	ldi	r24, 0x20	; 32
    22e4:	a7 fc       	sbrc	r10, 7
    22e6:	8d e2       	ldi	r24, 0x2D	; 45
    22e8:	b6 01       	movw	r22, r12
    22ea:	90 e0       	ldi	r25, 0x00	; 0
    22ec:	6a d3       	rcall	.+1748   	; 0x29c2 <fputc>
    22ee:	89 14       	cp	r8, r9
    22f0:	30 f4       	brcc	.+12     	; 0x22fe <vfprintf+0x396>
    22f2:	b6 01       	movw	r22, r12
    22f4:	80 e3       	ldi	r24, 0x30	; 48
    22f6:	90 e0       	ldi	r25, 0x00	; 0
    22f8:	64 d3       	rcall	.+1736   	; 0x29c2 <fputc>
    22fa:	9a 94       	dec	r9
    22fc:	f8 cf       	rjmp	.-16     	; 0x22ee <vfprintf+0x386>
    22fe:	8a 94       	dec	r8
    2300:	f3 01       	movw	r30, r6
    2302:	e8 0d       	add	r30, r8
    2304:	f1 1d       	adc	r31, r1
    2306:	80 81       	ld	r24, Z
    2308:	b6 01       	movw	r22, r12
    230a:	90 e0       	ldi	r25, 0x00	; 0
    230c:	5a d3       	rcall	.+1716   	; 0x29c2 <fputc>
    230e:	81 10       	cpse	r8, r1
    2310:	f6 cf       	rjmp	.-20     	; 0x22fe <vfprintf+0x396>
    2312:	22 20       	and	r2, r2
    2314:	09 f4       	brne	.+2      	; 0x2318 <vfprintf+0x3b0>
    2316:	4e ce       	rjmp	.-868    	; 0x1fb4 <vfprintf+0x4c>
    2318:	b6 01       	movw	r22, r12
    231a:	80 e2       	ldi	r24, 0x20	; 32
    231c:	90 e0       	ldi	r25, 0x00	; 0
    231e:	51 d3       	rcall	.+1698   	; 0x29c2 <fputc>
    2320:	2a 94       	dec	r2
    2322:	f7 cf       	rjmp	.-18     	; 0x2312 <vfprintf+0x3aa>
    2324:	f6 01       	movw	r30, r12
    2326:	86 81       	ldd	r24, Z+6	; 0x06
    2328:	97 81       	ldd	r25, Z+7	; 0x07
    232a:	02 c0       	rjmp	.+4      	; 0x2330 <vfprintf+0x3c8>
    232c:	8f ef       	ldi	r24, 0xFF	; 255
    232e:	9f ef       	ldi	r25, 0xFF	; 255
    2330:	2b 96       	adiw	r28, 0x0b	; 11
    2332:	0f b6       	in	r0, 0x3f	; 63
    2334:	f8 94       	cli
    2336:	de bf       	out	0x3e, r29	; 62
    2338:	0f be       	out	0x3f, r0	; 63
    233a:	cd bf       	out	0x3d, r28	; 61
    233c:	df 91       	pop	r29
    233e:	cf 91       	pop	r28
    2340:	1f 91       	pop	r17
    2342:	0f 91       	pop	r16
    2344:	ff 90       	pop	r15
    2346:	ef 90       	pop	r14
    2348:	df 90       	pop	r13
    234a:	cf 90       	pop	r12
    234c:	bf 90       	pop	r11
    234e:	af 90       	pop	r10
    2350:	9f 90       	pop	r9
    2352:	8f 90       	pop	r8
    2354:	7f 90       	pop	r7
    2356:	6f 90       	pop	r6
    2358:	5f 90       	pop	r5
    235a:	4f 90       	pop	r4
    235c:	3f 90       	pop	r3
    235e:	2f 90       	pop	r2
    2360:	08 95       	ret

00002362 <putval>:
    2362:	20 fd       	sbrc	r18, 0
    2364:	09 c0       	rjmp	.+18     	; 0x2378 <putval+0x16>
    2366:	fc 01       	movw	r30, r24
    2368:	23 fd       	sbrc	r18, 3
    236a:	05 c0       	rjmp	.+10     	; 0x2376 <putval+0x14>
    236c:	22 ff       	sbrs	r18, 2
    236e:	02 c0       	rjmp	.+4      	; 0x2374 <putval+0x12>
    2370:	73 83       	std	Z+3, r23	; 0x03
    2372:	62 83       	std	Z+2, r22	; 0x02
    2374:	51 83       	std	Z+1, r21	; 0x01
    2376:	40 83       	st	Z, r20
    2378:	08 95       	ret

0000237a <mulacc>:
    237a:	44 fd       	sbrc	r20, 4
    237c:	17 c0       	rjmp	.+46     	; 0x23ac <mulacc+0x32>
    237e:	46 fd       	sbrc	r20, 6
    2380:	17 c0       	rjmp	.+46     	; 0x23b0 <mulacc+0x36>
    2382:	ab 01       	movw	r20, r22
    2384:	bc 01       	movw	r22, r24
    2386:	da 01       	movw	r26, r20
    2388:	fb 01       	movw	r30, r22
    238a:	aa 0f       	add	r26, r26
    238c:	bb 1f       	adc	r27, r27
    238e:	ee 1f       	adc	r30, r30
    2390:	ff 1f       	adc	r31, r31
    2392:	10 94       	com	r1
    2394:	d1 f7       	brne	.-12     	; 0x238a <mulacc+0x10>
    2396:	4a 0f       	add	r20, r26
    2398:	5b 1f       	adc	r21, r27
    239a:	6e 1f       	adc	r22, r30
    239c:	7f 1f       	adc	r23, r31
    239e:	cb 01       	movw	r24, r22
    23a0:	ba 01       	movw	r22, r20
    23a2:	66 0f       	add	r22, r22
    23a4:	77 1f       	adc	r23, r23
    23a6:	88 1f       	adc	r24, r24
    23a8:	99 1f       	adc	r25, r25
    23aa:	09 c0       	rjmp	.+18     	; 0x23be <mulacc+0x44>
    23ac:	33 e0       	ldi	r19, 0x03	; 3
    23ae:	01 c0       	rjmp	.+2      	; 0x23b2 <mulacc+0x38>
    23b0:	34 e0       	ldi	r19, 0x04	; 4
    23b2:	66 0f       	add	r22, r22
    23b4:	77 1f       	adc	r23, r23
    23b6:	88 1f       	adc	r24, r24
    23b8:	99 1f       	adc	r25, r25
    23ba:	31 50       	subi	r19, 0x01	; 1
    23bc:	d1 f7       	brne	.-12     	; 0x23b2 <mulacc+0x38>
    23be:	62 0f       	add	r22, r18
    23c0:	71 1d       	adc	r23, r1
    23c2:	81 1d       	adc	r24, r1
    23c4:	91 1d       	adc	r25, r1
    23c6:	08 95       	ret

000023c8 <skip_spaces>:
    23c8:	0f 93       	push	r16
    23ca:	1f 93       	push	r17
    23cc:	cf 93       	push	r28
    23ce:	df 93       	push	r29
    23d0:	8c 01       	movw	r16, r24
    23d2:	c8 01       	movw	r24, r16
    23d4:	b8 d2       	rcall	.+1392   	; 0x2946 <fgetc>
    23d6:	ec 01       	movw	r28, r24
    23d8:	97 fd       	sbrc	r25, 7
    23da:	06 c0       	rjmp	.+12     	; 0x23e8 <skip_spaces+0x20>
    23dc:	8b d2       	rcall	.+1302   	; 0x28f4 <isspace>
    23de:	89 2b       	or	r24, r25
    23e0:	c1 f7       	brne	.-16     	; 0x23d2 <skip_spaces+0xa>
    23e2:	b8 01       	movw	r22, r16
    23e4:	ce 01       	movw	r24, r28
    23e6:	29 d3       	rcall	.+1618   	; 0x2a3a <ungetc>
    23e8:	ce 01       	movw	r24, r28
    23ea:	df 91       	pop	r29
    23ec:	cf 91       	pop	r28
    23ee:	1f 91       	pop	r17
    23f0:	0f 91       	pop	r16
    23f2:	08 95       	ret

000023f4 <conv_int>:
    23f4:	8f 92       	push	r8
    23f6:	9f 92       	push	r9
    23f8:	af 92       	push	r10
    23fa:	bf 92       	push	r11
    23fc:	ef 92       	push	r14
    23fe:	ff 92       	push	r15
    2400:	0f 93       	push	r16
    2402:	1f 93       	push	r17
    2404:	cf 93       	push	r28
    2406:	df 93       	push	r29
    2408:	8c 01       	movw	r16, r24
    240a:	d6 2f       	mov	r29, r22
    240c:	7a 01       	movw	r14, r20
    240e:	b2 2e       	mov	r11, r18
    2410:	9a d2       	rcall	.+1332   	; 0x2946 <fgetc>
    2412:	9c 01       	movw	r18, r24
    2414:	33 27       	eor	r19, r19
    2416:	2b 32       	cpi	r18, 0x2B	; 43
    2418:	31 05       	cpc	r19, r1
    241a:	31 f0       	breq	.+12     	; 0x2428 <conv_int+0x34>
    241c:	2d 32       	cpi	r18, 0x2D	; 45
    241e:	31 05       	cpc	r19, r1
    2420:	59 f4       	brne	.+22     	; 0x2438 <conv_int+0x44>
    2422:	8b 2d       	mov	r24, r11
    2424:	80 68       	ori	r24, 0x80	; 128
    2426:	b8 2e       	mov	r11, r24
    2428:	d1 50       	subi	r29, 0x01	; 1
    242a:	11 f4       	brne	.+4      	; 0x2430 <conv_int+0x3c>
    242c:	80 e0       	ldi	r24, 0x00	; 0
    242e:	61 c0       	rjmp	.+194    	; 0x24f2 <conv_int+0xfe>
    2430:	c8 01       	movw	r24, r16
    2432:	89 d2       	rcall	.+1298   	; 0x2946 <fgetc>
    2434:	97 fd       	sbrc	r25, 7
    2436:	fa cf       	rjmp	.-12     	; 0x242c <conv_int+0x38>
    2438:	cb 2d       	mov	r28, r11
    243a:	cd 7f       	andi	r28, 0xFD	; 253
    243c:	2b 2d       	mov	r18, r11
    243e:	20 73       	andi	r18, 0x30	; 48
    2440:	f9 f4       	brne	.+62     	; 0x2480 <conv_int+0x8c>
    2442:	80 33       	cpi	r24, 0x30	; 48
    2444:	e9 f4       	brne	.+58     	; 0x2480 <conv_int+0x8c>
    2446:	aa 24       	eor	r10, r10
    2448:	aa 94       	dec	r10
    244a:	ad 0e       	add	r10, r29
    244c:	09 f4       	brne	.+2      	; 0x2450 <conv_int+0x5c>
    244e:	3e c0       	rjmp	.+124    	; 0x24cc <conv_int+0xd8>
    2450:	c8 01       	movw	r24, r16
    2452:	79 d2       	rcall	.+1266   	; 0x2946 <fgetc>
    2454:	97 fd       	sbrc	r25, 7
    2456:	3a c0       	rjmp	.+116    	; 0x24cc <conv_int+0xd8>
    2458:	9c 01       	movw	r18, r24
    245a:	2f 7d       	andi	r18, 0xDF	; 223
    245c:	33 27       	eor	r19, r19
    245e:	28 35       	cpi	r18, 0x58	; 88
    2460:	31 05       	cpc	r19, r1
    2462:	41 f4       	brne	.+16     	; 0x2474 <conv_int+0x80>
    2464:	c2 64       	ori	r28, 0x42	; 66
    2466:	d2 50       	subi	r29, 0x02	; 2
    2468:	89 f1       	breq	.+98     	; 0x24cc <conv_int+0xd8>
    246a:	c8 01       	movw	r24, r16
    246c:	6c d2       	rcall	.+1240   	; 0x2946 <fgetc>
    246e:	97 ff       	sbrs	r25, 7
    2470:	07 c0       	rjmp	.+14     	; 0x2480 <conv_int+0x8c>
    2472:	2c c0       	rjmp	.+88     	; 0x24cc <conv_int+0xd8>
    2474:	b6 fe       	sbrs	r11, 6
    2476:	02 c0       	rjmp	.+4      	; 0x247c <conv_int+0x88>
    2478:	c2 60       	ori	r28, 0x02	; 2
    247a:	01 c0       	rjmp	.+2      	; 0x247e <conv_int+0x8a>
    247c:	c2 61       	ori	r28, 0x12	; 18
    247e:	da 2d       	mov	r29, r10
    2480:	81 2c       	mov	r8, r1
    2482:	91 2c       	mov	r9, r1
    2484:	54 01       	movw	r10, r8
    2486:	20 ed       	ldi	r18, 0xD0	; 208
    2488:	28 0f       	add	r18, r24
    248a:	28 30       	cpi	r18, 0x08	; 8
    248c:	78 f0       	brcs	.+30     	; 0x24ac <conv_int+0xb8>
    248e:	c4 ff       	sbrs	r28, 4
    2490:	03 c0       	rjmp	.+6      	; 0x2498 <conv_int+0xa4>
    2492:	b8 01       	movw	r22, r16
    2494:	d2 d2       	rcall	.+1444   	; 0x2a3a <ungetc>
    2496:	17 c0       	rjmp	.+46     	; 0x24c6 <conv_int+0xd2>
    2498:	2a 30       	cpi	r18, 0x0A	; 10
    249a:	40 f0       	brcs	.+16     	; 0x24ac <conv_int+0xb8>
    249c:	c6 ff       	sbrs	r28, 6
    249e:	f9 cf       	rjmp	.-14     	; 0x2492 <conv_int+0x9e>
    24a0:	2f 7d       	andi	r18, 0xDF	; 223
    24a2:	3f ee       	ldi	r19, 0xEF	; 239
    24a4:	32 0f       	add	r19, r18
    24a6:	36 30       	cpi	r19, 0x06	; 6
    24a8:	a0 f7       	brcc	.-24     	; 0x2492 <conv_int+0x9e>
    24aa:	27 50       	subi	r18, 0x07	; 7
    24ac:	4c 2f       	mov	r20, r28
    24ae:	c5 01       	movw	r24, r10
    24b0:	b4 01       	movw	r22, r8
    24b2:	63 df       	rcall	.-314    	; 0x237a <mulacc>
    24b4:	4b 01       	movw	r8, r22
    24b6:	5c 01       	movw	r10, r24
    24b8:	c2 60       	ori	r28, 0x02	; 2
    24ba:	d1 50       	subi	r29, 0x01	; 1
    24bc:	51 f0       	breq	.+20     	; 0x24d2 <conv_int+0xde>
    24be:	c8 01       	movw	r24, r16
    24c0:	42 d2       	rcall	.+1156   	; 0x2946 <fgetc>
    24c2:	97 ff       	sbrs	r25, 7
    24c4:	e0 cf       	rjmp	.-64     	; 0x2486 <conv_int+0x92>
    24c6:	c1 fd       	sbrc	r28, 1
    24c8:	04 c0       	rjmp	.+8      	; 0x24d2 <conv_int+0xde>
    24ca:	b0 cf       	rjmp	.-160    	; 0x242c <conv_int+0x38>
    24cc:	81 2c       	mov	r8, r1
    24ce:	91 2c       	mov	r9, r1
    24d0:	54 01       	movw	r10, r8
    24d2:	c7 ff       	sbrs	r28, 7
    24d4:	08 c0       	rjmp	.+16     	; 0x24e6 <conv_int+0xf2>
    24d6:	b0 94       	com	r11
    24d8:	a0 94       	com	r10
    24da:	90 94       	com	r9
    24dc:	80 94       	com	r8
    24de:	81 1c       	adc	r8, r1
    24e0:	91 1c       	adc	r9, r1
    24e2:	a1 1c       	adc	r10, r1
    24e4:	b1 1c       	adc	r11, r1
    24e6:	2c 2f       	mov	r18, r28
    24e8:	b5 01       	movw	r22, r10
    24ea:	a4 01       	movw	r20, r8
    24ec:	c7 01       	movw	r24, r14
    24ee:	39 df       	rcall	.-398    	; 0x2362 <putval>
    24f0:	81 e0       	ldi	r24, 0x01	; 1
    24f2:	df 91       	pop	r29
    24f4:	cf 91       	pop	r28
    24f6:	1f 91       	pop	r17
    24f8:	0f 91       	pop	r16
    24fa:	ff 90       	pop	r15
    24fc:	ef 90       	pop	r14
    24fe:	bf 90       	pop	r11
    2500:	af 90       	pop	r10
    2502:	9f 90       	pop	r9
    2504:	8f 90       	pop	r8
    2506:	08 95       	ret

00002508 <conv_brk>:
    2508:	5f 92       	push	r5
    250a:	6f 92       	push	r6
    250c:	7f 92       	push	r7
    250e:	8f 92       	push	r8
    2510:	9f 92       	push	r9
    2512:	af 92       	push	r10
    2514:	bf 92       	push	r11
    2516:	cf 92       	push	r12
    2518:	df 92       	push	r13
    251a:	ef 92       	push	r14
    251c:	ff 92       	push	r15
    251e:	0f 93       	push	r16
    2520:	1f 93       	push	r17
    2522:	cf 93       	push	r28
    2524:	df 93       	push	r29
    2526:	cd b7       	in	r28, 0x3d	; 61
    2528:	de b7       	in	r29, 0x3e	; 62
    252a:	a0 97       	sbiw	r28, 0x20	; 32
    252c:	0f b6       	in	r0, 0x3f	; 63
    252e:	f8 94       	cli
    2530:	de bf       	out	0x3e, r29	; 62
    2532:	0f be       	out	0x3f, r0	; 63
    2534:	cd bf       	out	0x3d, r28	; 61
    2536:	5c 01       	movw	r10, r24
    2538:	96 2e       	mov	r9, r22
    253a:	7a 01       	movw	r14, r20
    253c:	f9 01       	movw	r30, r18
    253e:	8e 01       	movw	r16, r28
    2540:	0f 5f       	subi	r16, 0xFF	; 255
    2542:	1f 4f       	sbci	r17, 0xFF	; 255
    2544:	68 01       	movw	r12, r16
    2546:	80 e2       	ldi	r24, 0x20	; 32
    2548:	d8 01       	movw	r26, r16
    254a:	1d 92       	st	X+, r1
    254c:	8a 95       	dec	r24
    254e:	e9 f7       	brne	.-6      	; 0x254a <conv_brk+0x42>
    2550:	d5 01       	movw	r26, r10
    2552:	13 96       	adiw	r26, 0x03	; 3
    2554:	8c 90       	ld	r8, X
    2556:	80 e0       	ldi	r24, 0x00	; 0
    2558:	90 e0       	ldi	r25, 0x00	; 0
    255a:	61 2c       	mov	r6, r1
    255c:	71 2c       	mov	r7, r1
    255e:	30 e0       	ldi	r19, 0x00	; 0
    2560:	61 e0       	ldi	r22, 0x01	; 1
    2562:	70 e0       	ldi	r23, 0x00	; 0
    2564:	83 fc       	sbrc	r8, 3
    2566:	25 91       	lpm	r18, Z+
    2568:	83 fe       	sbrs	r8, 3
    256a:	21 91       	ld	r18, Z+
    256c:	8f 01       	movw	r16, r30
    256e:	52 2e       	mov	r5, r18
    2570:	21 11       	cpse	r18, r1
    2572:	03 c0       	rjmp	.+6      	; 0x257a <conv_brk+0x72>
    2574:	80 e0       	ldi	r24, 0x00	; 0
    2576:	90 e0       	ldi	r25, 0x00	; 0
    2578:	90 c0       	rjmp	.+288    	; 0x269a <conv_brk+0x192>
    257a:	2e 35       	cpi	r18, 0x5E	; 94
    257c:	11 f4       	brne	.+4      	; 0x2582 <conv_brk+0x7a>
    257e:	00 97       	sbiw	r24, 0x00	; 0
    2580:	51 f1       	breq	.+84     	; 0x25d6 <conv_brk+0xce>
    2582:	43 2f       	mov	r20, r19
    2584:	50 e0       	ldi	r21, 0x00	; 0
    2586:	48 17       	cp	r20, r24
    2588:	59 07       	cpc	r21, r25
    258a:	3c f4       	brge	.+14     	; 0x259a <conv_brk+0x92>
    258c:	2d 35       	cpi	r18, 0x5D	; 93
    258e:	59 f1       	breq	.+86     	; 0x25e6 <conv_brk+0xde>
    2590:	2d 32       	cpi	r18, 0x2D	; 45
    2592:	19 f4       	brne	.+6      	; 0x259a <conv_brk+0x92>
    2594:	77 20       	and	r7, r7
    2596:	09 f1       	breq	.+66     	; 0x25da <conv_brk+0xd2>
    2598:	03 c0       	rjmp	.+6      	; 0x25a0 <conv_brk+0x98>
    259a:	77 20       	and	r7, r7
    259c:	09 f4       	brne	.+2      	; 0x25a0 <conv_brk+0x98>
    259e:	68 c0       	rjmp	.+208    	; 0x2670 <conv_brk+0x168>
    25a0:	45 2d       	mov	r20, r5
    25a2:	46 95       	lsr	r20
    25a4:	46 95       	lsr	r20
    25a6:	46 95       	lsr	r20
    25a8:	d6 01       	movw	r26, r12
    25aa:	a4 0f       	add	r26, r20
    25ac:	b1 1d       	adc	r27, r1
    25ae:	45 2d       	mov	r20, r5
    25b0:	47 70       	andi	r20, 0x07	; 7
    25b2:	8b 01       	movw	r16, r22
    25b4:	02 c0       	rjmp	.+4      	; 0x25ba <conv_brk+0xb2>
    25b6:	00 0f       	add	r16, r16
    25b8:	11 1f       	adc	r17, r17
    25ba:	4a 95       	dec	r20
    25bc:	e2 f7       	brpl	.-8      	; 0x25b6 <conv_brk+0xae>
    25be:	a8 01       	movw	r20, r16
    25c0:	5c 91       	ld	r21, X
    25c2:	45 2b       	or	r20, r21
    25c4:	4c 93       	st	X, r20
    25c6:	65 14       	cp	r6, r5
    25c8:	59 f0       	breq	.+22     	; 0x25e0 <conv_brk+0xd8>
    25ca:	56 14       	cp	r5, r6
    25cc:	10 f4       	brcc	.+4      	; 0x25d2 <conv_brk+0xca>
    25ce:	53 94       	inc	r5
    25d0:	e7 cf       	rjmp	.-50     	; 0x25a0 <conv_brk+0x98>
    25d2:	5a 94       	dec	r5
    25d4:	e5 cf       	rjmp	.-54     	; 0x25a0 <conv_brk+0x98>
    25d6:	31 e0       	ldi	r19, 0x01	; 1
    25d8:	04 c0       	rjmp	.+8      	; 0x25e2 <conv_brk+0xda>
    25da:	77 24       	eor	r7, r7
    25dc:	73 94       	inc	r7
    25de:	01 c0       	rjmp	.+2      	; 0x25e2 <conv_brk+0xda>
    25e0:	71 2c       	mov	r7, r1
    25e2:	01 96       	adiw	r24, 0x01	; 1
    25e4:	bf cf       	rjmp	.-130    	; 0x2564 <conv_brk+0x5c>
    25e6:	77 20       	and	r7, r7
    25e8:	19 f0       	breq	.+6      	; 0x25f0 <conv_brk+0xe8>
    25ea:	8e 81       	ldd	r24, Y+6	; 0x06
    25ec:	80 62       	ori	r24, 0x20	; 32
    25ee:	8e 83       	std	Y+6, r24	; 0x06
    25f0:	31 11       	cpse	r19, r1
    25f2:	03 c0       	rjmp	.+6      	; 0x25fa <conv_brk+0xf2>
    25f4:	88 24       	eor	r8, r8
    25f6:	83 94       	inc	r8
    25f8:	17 c0       	rjmp	.+46     	; 0x2628 <conv_brk+0x120>
    25fa:	f6 01       	movw	r30, r12
    25fc:	9e 01       	movw	r18, r28
    25fe:	2f 5d       	subi	r18, 0xDF	; 223
    2600:	3f 4f       	sbci	r19, 0xFF	; 255
    2602:	80 81       	ld	r24, Z
    2604:	80 95       	com	r24
    2606:	81 93       	st	Z+, r24
    2608:	2e 17       	cp	r18, r30
    260a:	3f 07       	cpc	r19, r31
    260c:	d1 f7       	brne	.-12     	; 0x2602 <conv_brk+0xfa>
    260e:	f2 cf       	rjmp	.-28     	; 0x25f4 <conv_brk+0xec>
    2610:	e1 14       	cp	r14, r1
    2612:	f1 04       	cpc	r15, r1
    2614:	29 f0       	breq	.+10     	; 0x2620 <conv_brk+0x118>
    2616:	d7 01       	movw	r26, r14
    2618:	8c 93       	st	X, r24
    261a:	f7 01       	movw	r30, r14
    261c:	31 96       	adiw	r30, 0x01	; 1
    261e:	7f 01       	movw	r14, r30
    2620:	9a 94       	dec	r9
    2622:	81 2c       	mov	r8, r1
    2624:	99 20       	and	r9, r9
    2626:	e9 f0       	breq	.+58     	; 0x2662 <conv_brk+0x15a>
    2628:	c5 01       	movw	r24, r10
    262a:	8d d1       	rcall	.+794    	; 0x2946 <fgetc>
    262c:	97 fd       	sbrc	r25, 7
    262e:	17 c0       	rjmp	.+46     	; 0x265e <conv_brk+0x156>
    2630:	fc 01       	movw	r30, r24
    2632:	ff 27       	eor	r31, r31
    2634:	23 e0       	ldi	r18, 0x03	; 3
    2636:	f5 95       	asr	r31
    2638:	e7 95       	ror	r30
    263a:	2a 95       	dec	r18
    263c:	e1 f7       	brne	.-8      	; 0x2636 <conv_brk+0x12e>
    263e:	ec 0d       	add	r30, r12
    2640:	fd 1d       	adc	r31, r13
    2642:	20 81       	ld	r18, Z
    2644:	30 e0       	ldi	r19, 0x00	; 0
    2646:	ac 01       	movw	r20, r24
    2648:	47 70       	andi	r20, 0x07	; 7
    264a:	55 27       	eor	r21, r21
    264c:	02 c0       	rjmp	.+4      	; 0x2652 <conv_brk+0x14a>
    264e:	35 95       	asr	r19
    2650:	27 95       	ror	r18
    2652:	4a 95       	dec	r20
    2654:	e2 f7       	brpl	.-8      	; 0x264e <conv_brk+0x146>
    2656:	20 fd       	sbrc	r18, 0
    2658:	db cf       	rjmp	.-74     	; 0x2610 <conv_brk+0x108>
    265a:	b5 01       	movw	r22, r10
    265c:	ee d1       	rcall	.+988    	; 0x2a3a <ungetc>
    265e:	81 10       	cpse	r8, r1
    2660:	89 cf       	rjmp	.-238    	; 0x2574 <conv_brk+0x6c>
    2662:	e1 14       	cp	r14, r1
    2664:	f1 04       	cpc	r15, r1
    2666:	11 f0       	breq	.+4      	; 0x266c <conv_brk+0x164>
    2668:	d7 01       	movw	r26, r14
    266a:	1c 92       	st	X, r1
    266c:	c8 01       	movw	r24, r16
    266e:	15 c0       	rjmp	.+42     	; 0x269a <conv_brk+0x192>
    2670:	42 2f       	mov	r20, r18
    2672:	46 95       	lsr	r20
    2674:	46 95       	lsr	r20
    2676:	46 95       	lsr	r20
    2678:	d6 01       	movw	r26, r12
    267a:	a4 0f       	add	r26, r20
    267c:	b1 1d       	adc	r27, r1
    267e:	42 2f       	mov	r20, r18
    2680:	47 70       	andi	r20, 0x07	; 7
    2682:	8b 01       	movw	r16, r22
    2684:	02 c0       	rjmp	.+4      	; 0x268a <conv_brk+0x182>
    2686:	00 0f       	add	r16, r16
    2688:	11 1f       	adc	r17, r17
    268a:	4a 95       	dec	r20
    268c:	e2 f7       	brpl	.-8      	; 0x2686 <conv_brk+0x17e>
    268e:	a8 01       	movw	r20, r16
    2690:	5c 91       	ld	r21, X
    2692:	45 2b       	or	r20, r21
    2694:	4c 93       	st	X, r20
    2696:	62 2e       	mov	r6, r18
    2698:	a4 cf       	rjmp	.-184    	; 0x25e2 <conv_brk+0xda>
    269a:	a0 96       	adiw	r28, 0x20	; 32
    269c:	0f b6       	in	r0, 0x3f	; 63
    269e:	f8 94       	cli
    26a0:	de bf       	out	0x3e, r29	; 62
    26a2:	0f be       	out	0x3f, r0	; 63
    26a4:	cd bf       	out	0x3d, r28	; 61
    26a6:	df 91       	pop	r29
    26a8:	cf 91       	pop	r28
    26aa:	1f 91       	pop	r17
    26ac:	0f 91       	pop	r16
    26ae:	ff 90       	pop	r15
    26b0:	ef 90       	pop	r14
    26b2:	df 90       	pop	r13
    26b4:	cf 90       	pop	r12
    26b6:	bf 90       	pop	r11
    26b8:	af 90       	pop	r10
    26ba:	9f 90       	pop	r9
    26bc:	8f 90       	pop	r8
    26be:	7f 90       	pop	r7
    26c0:	6f 90       	pop	r6
    26c2:	5f 90       	pop	r5
    26c4:	08 95       	ret

000026c6 <vfscanf>:
    26c6:	5f 92       	push	r5
    26c8:	6f 92       	push	r6
    26ca:	7f 92       	push	r7
    26cc:	8f 92       	push	r8
    26ce:	9f 92       	push	r9
    26d0:	af 92       	push	r10
    26d2:	bf 92       	push	r11
    26d4:	cf 92       	push	r12
    26d6:	df 92       	push	r13
    26d8:	ef 92       	push	r14
    26da:	ff 92       	push	r15
    26dc:	0f 93       	push	r16
    26de:	1f 93       	push	r17
    26e0:	cf 93       	push	r28
    26e2:	df 93       	push	r29
    26e4:	6c 01       	movw	r12, r24
    26e6:	eb 01       	movw	r28, r22
    26e8:	5a 01       	movw	r10, r20
    26ea:	fc 01       	movw	r30, r24
    26ec:	17 82       	std	Z+7, r1	; 0x07
    26ee:	16 82       	std	Z+6, r1	; 0x06
    26f0:	51 2c       	mov	r5, r1
    26f2:	f6 01       	movw	r30, r12
    26f4:	e3 80       	ldd	r14, Z+3	; 0x03
    26f6:	fe 01       	movw	r30, r28
    26f8:	e3 fc       	sbrc	r14, 3
    26fa:	85 91       	lpm	r24, Z+
    26fc:	e3 fe       	sbrs	r14, 3
    26fe:	81 91       	ld	r24, Z+
    2700:	18 2f       	mov	r17, r24
    2702:	ef 01       	movw	r28, r30
    2704:	88 23       	and	r24, r24
    2706:	09 f4       	brne	.+2      	; 0x270a <vfscanf+0x44>
    2708:	e0 c0       	rjmp	.+448    	; 0x28ca <vfscanf+0x204>
    270a:	90 e0       	ldi	r25, 0x00	; 0
    270c:	f3 d0       	rcall	.+486    	; 0x28f4 <isspace>
    270e:	89 2b       	or	r24, r25
    2710:	19 f0       	breq	.+6      	; 0x2718 <vfscanf+0x52>
    2712:	c6 01       	movw	r24, r12
    2714:	59 de       	rcall	.-846    	; 0x23c8 <skip_spaces>
    2716:	ed cf       	rjmp	.-38     	; 0x26f2 <vfscanf+0x2c>
    2718:	15 32       	cpi	r17, 0x25	; 37
    271a:	41 f4       	brne	.+16     	; 0x272c <vfscanf+0x66>
    271c:	fe 01       	movw	r30, r28
    271e:	e3 fc       	sbrc	r14, 3
    2720:	15 91       	lpm	r17, Z+
    2722:	e3 fe       	sbrs	r14, 3
    2724:	11 91       	ld	r17, Z+
    2726:	ef 01       	movw	r28, r30
    2728:	15 32       	cpi	r17, 0x25	; 37
    272a:	71 f4       	brne	.+28     	; 0x2748 <vfscanf+0x82>
    272c:	c6 01       	movw	r24, r12
    272e:	0b d1       	rcall	.+534    	; 0x2946 <fgetc>
    2730:	97 fd       	sbrc	r25, 7
    2732:	c9 c0       	rjmp	.+402    	; 0x28c6 <vfscanf+0x200>
    2734:	41 2f       	mov	r20, r17
    2736:	50 e0       	ldi	r21, 0x00	; 0
    2738:	9c 01       	movw	r18, r24
    273a:	33 27       	eor	r19, r19
    273c:	24 17       	cp	r18, r20
    273e:	35 07       	cpc	r19, r21
    2740:	c1 f2       	breq	.-80     	; 0x26f2 <vfscanf+0x2c>
    2742:	b6 01       	movw	r22, r12
    2744:	7a d1       	rcall	.+756    	; 0x2a3a <ungetc>
    2746:	c1 c0       	rjmp	.+386    	; 0x28ca <vfscanf+0x204>
    2748:	1a 32       	cpi	r17, 0x2A	; 42
    274a:	39 f4       	brne	.+14     	; 0x275a <vfscanf+0x94>
    274c:	e3 fc       	sbrc	r14, 3
    274e:	15 91       	lpm	r17, Z+
    2750:	e3 fe       	sbrs	r14, 3
    2752:	11 91       	ld	r17, Z+
    2754:	ef 01       	movw	r28, r30
    2756:	01 e0       	ldi	r16, 0x01	; 1
    2758:	01 c0       	rjmp	.+2      	; 0x275c <vfscanf+0x96>
    275a:	00 e0       	ldi	r16, 0x00	; 0
    275c:	f1 2c       	mov	r15, r1
    275e:	20 ed       	ldi	r18, 0xD0	; 208
    2760:	21 0f       	add	r18, r17
    2762:	2a 30       	cpi	r18, 0x0A	; 10
    2764:	78 f4       	brcc	.+30     	; 0x2784 <vfscanf+0xbe>
    2766:	02 60       	ori	r16, 0x02	; 2
    2768:	6f 2d       	mov	r22, r15
    276a:	70 e0       	ldi	r23, 0x00	; 0
    276c:	80 e0       	ldi	r24, 0x00	; 0
    276e:	90 e0       	ldi	r25, 0x00	; 0
    2770:	40 e2       	ldi	r20, 0x20	; 32
    2772:	03 de       	rcall	.-1018   	; 0x237a <mulacc>
    2774:	f6 2e       	mov	r15, r22
    2776:	fe 01       	movw	r30, r28
    2778:	e3 fc       	sbrc	r14, 3
    277a:	15 91       	lpm	r17, Z+
    277c:	e3 fe       	sbrs	r14, 3
    277e:	11 91       	ld	r17, Z+
    2780:	ef 01       	movw	r28, r30
    2782:	ed cf       	rjmp	.-38     	; 0x275e <vfscanf+0x98>
    2784:	01 ff       	sbrs	r16, 1
    2786:	03 c0       	rjmp	.+6      	; 0x278e <vfscanf+0xc8>
    2788:	f1 10       	cpse	r15, r1
    278a:	03 c0       	rjmp	.+6      	; 0x2792 <vfscanf+0xcc>
    278c:	9e c0       	rjmp	.+316    	; 0x28ca <vfscanf+0x204>
    278e:	ff 24       	eor	r15, r15
    2790:	fa 94       	dec	r15
    2792:	18 36       	cpi	r17, 0x68	; 104
    2794:	19 f0       	breq	.+6      	; 0x279c <vfscanf+0xd6>
    2796:	1c 36       	cpi	r17, 0x6C	; 108
    2798:	51 f0       	breq	.+20     	; 0x27ae <vfscanf+0xe8>
    279a:	10 c0       	rjmp	.+32     	; 0x27bc <vfscanf+0xf6>
    279c:	fe 01       	movw	r30, r28
    279e:	e3 fc       	sbrc	r14, 3
    27a0:	15 91       	lpm	r17, Z+
    27a2:	e3 fe       	sbrs	r14, 3
    27a4:	11 91       	ld	r17, Z+
    27a6:	ef 01       	movw	r28, r30
    27a8:	18 36       	cpi	r17, 0x68	; 104
    27aa:	41 f4       	brne	.+16     	; 0x27bc <vfscanf+0xf6>
    27ac:	08 60       	ori	r16, 0x08	; 8
    27ae:	04 60       	ori	r16, 0x04	; 4
    27b0:	fe 01       	movw	r30, r28
    27b2:	e3 fc       	sbrc	r14, 3
    27b4:	15 91       	lpm	r17, Z+
    27b6:	e3 fe       	sbrs	r14, 3
    27b8:	11 91       	ld	r17, Z+
    27ba:	ef 01       	movw	r28, r30
    27bc:	11 23       	and	r17, r17
    27be:	09 f4       	brne	.+2      	; 0x27c2 <vfscanf+0xfc>
    27c0:	84 c0       	rjmp	.+264    	; 0x28ca <vfscanf+0x204>
    27c2:	61 2f       	mov	r22, r17
    27c4:	70 e0       	ldi	r23, 0x00	; 0
    27c6:	8e eb       	ldi	r24, 0xBE	; 190
    27c8:	90 e0       	ldi	r25, 0x00	; 0
    27ca:	9c d0       	rcall	.+312    	; 0x2904 <strchr_P>
    27cc:	89 2b       	or	r24, r25
    27ce:	09 f4       	brne	.+2      	; 0x27d2 <vfscanf+0x10c>
    27d0:	7c c0       	rjmp	.+248    	; 0x28ca <vfscanf+0x204>
    27d2:	00 fd       	sbrc	r16, 0
    27d4:	07 c0       	rjmp	.+14     	; 0x27e4 <vfscanf+0x11e>
    27d6:	f5 01       	movw	r30, r10
    27d8:	80 80       	ld	r8, Z
    27da:	91 80       	ldd	r9, Z+1	; 0x01
    27dc:	c5 01       	movw	r24, r10
    27de:	02 96       	adiw	r24, 0x02	; 2
    27e0:	5c 01       	movw	r10, r24
    27e2:	02 c0       	rjmp	.+4      	; 0x27e8 <vfscanf+0x122>
    27e4:	81 2c       	mov	r8, r1
    27e6:	91 2c       	mov	r9, r1
    27e8:	1e 36       	cpi	r17, 0x6E	; 110
    27ea:	49 f4       	brne	.+18     	; 0x27fe <vfscanf+0x138>
    27ec:	f6 01       	movw	r30, r12
    27ee:	46 81       	ldd	r20, Z+6	; 0x06
    27f0:	57 81       	ldd	r21, Z+7	; 0x07
    27f2:	60 e0       	ldi	r22, 0x00	; 0
    27f4:	70 e0       	ldi	r23, 0x00	; 0
    27f6:	20 2f       	mov	r18, r16
    27f8:	c4 01       	movw	r24, r8
    27fa:	b3 dd       	rcall	.-1178   	; 0x2362 <putval>
    27fc:	7a cf       	rjmp	.-268    	; 0x26f2 <vfscanf+0x2c>
    27fe:	13 36       	cpi	r17, 0x63	; 99
    2800:	a1 f4       	brne	.+40     	; 0x282a <vfscanf+0x164>
    2802:	01 fd       	sbrc	r16, 1
    2804:	02 c0       	rjmp	.+4      	; 0x280a <vfscanf+0x144>
    2806:	ff 24       	eor	r15, r15
    2808:	f3 94       	inc	r15
    280a:	c6 01       	movw	r24, r12
    280c:	9c d0       	rcall	.+312    	; 0x2946 <fgetc>
    280e:	97 fd       	sbrc	r25, 7
    2810:	5a c0       	rjmp	.+180    	; 0x28c6 <vfscanf+0x200>
    2812:	81 14       	cp	r8, r1
    2814:	91 04       	cpc	r9, r1
    2816:	29 f0       	breq	.+10     	; 0x2822 <vfscanf+0x15c>
    2818:	f4 01       	movw	r30, r8
    281a:	80 83       	st	Z, r24
    281c:	c4 01       	movw	r24, r8
    281e:	01 96       	adiw	r24, 0x01	; 1
    2820:	4c 01       	movw	r8, r24
    2822:	fa 94       	dec	r15
    2824:	f1 10       	cpse	r15, r1
    2826:	f1 cf       	rjmp	.-30     	; 0x280a <vfscanf+0x144>
    2828:	4a c0       	rjmp	.+148    	; 0x28be <vfscanf+0x1f8>
    282a:	1b 35       	cpi	r17, 0x5B	; 91
    282c:	51 f4       	brne	.+20     	; 0x2842 <vfscanf+0x17c>
    282e:	9e 01       	movw	r18, r28
    2830:	a4 01       	movw	r20, r8
    2832:	6f 2d       	mov	r22, r15
    2834:	c6 01       	movw	r24, r12
    2836:	68 de       	rcall	.-816    	; 0x2508 <conv_brk>
    2838:	ec 01       	movw	r28, r24
    283a:	89 2b       	or	r24, r25
    283c:	09 f0       	breq	.+2      	; 0x2840 <vfscanf+0x17a>
    283e:	3f c0       	rjmp	.+126    	; 0x28be <vfscanf+0x1f8>
    2840:	39 c0       	rjmp	.+114    	; 0x28b4 <vfscanf+0x1ee>
    2842:	c6 01       	movw	r24, r12
    2844:	c1 dd       	rcall	.-1150   	; 0x23c8 <skip_spaces>
    2846:	97 fd       	sbrc	r25, 7
    2848:	3e c0       	rjmp	.+124    	; 0x28c6 <vfscanf+0x200>
    284a:	1f 36       	cpi	r17, 0x6F	; 111
    284c:	49 f1       	breq	.+82     	; 0x28a0 <vfscanf+0x1da>
    284e:	28 f4       	brcc	.+10     	; 0x285a <vfscanf+0x194>
    2850:	14 36       	cpi	r17, 0x64	; 100
    2852:	21 f1       	breq	.+72     	; 0x289c <vfscanf+0x1d6>
    2854:	19 36       	cpi	r17, 0x69	; 105
    2856:	39 f1       	breq	.+78     	; 0x28a6 <vfscanf+0x1e0>
    2858:	25 c0       	rjmp	.+74     	; 0x28a4 <vfscanf+0x1de>
    285a:	13 37       	cpi	r17, 0x73	; 115
    285c:	71 f0       	breq	.+28     	; 0x287a <vfscanf+0x1b4>
    285e:	15 37       	cpi	r17, 0x75	; 117
    2860:	e9 f0       	breq	.+58     	; 0x289c <vfscanf+0x1d6>
    2862:	20 c0       	rjmp	.+64     	; 0x28a4 <vfscanf+0x1de>
    2864:	81 14       	cp	r8, r1
    2866:	91 04       	cpc	r9, r1
    2868:	29 f0       	breq	.+10     	; 0x2874 <vfscanf+0x1ae>
    286a:	f4 01       	movw	r30, r8
    286c:	60 82       	st	Z, r6
    286e:	c4 01       	movw	r24, r8
    2870:	01 96       	adiw	r24, 0x01	; 1
    2872:	4c 01       	movw	r8, r24
    2874:	fa 94       	dec	r15
    2876:	ff 20       	and	r15, r15
    2878:	59 f0       	breq	.+22     	; 0x2890 <vfscanf+0x1ca>
    287a:	c6 01       	movw	r24, r12
    287c:	64 d0       	rcall	.+200    	; 0x2946 <fgetc>
    287e:	3c 01       	movw	r6, r24
    2880:	97 fd       	sbrc	r25, 7
    2882:	06 c0       	rjmp	.+12     	; 0x2890 <vfscanf+0x1ca>
    2884:	37 d0       	rcall	.+110    	; 0x28f4 <isspace>
    2886:	89 2b       	or	r24, r25
    2888:	69 f3       	breq	.-38     	; 0x2864 <vfscanf+0x19e>
    288a:	b6 01       	movw	r22, r12
    288c:	c3 01       	movw	r24, r6
    288e:	d5 d0       	rcall	.+426    	; 0x2a3a <ungetc>
    2890:	81 14       	cp	r8, r1
    2892:	91 04       	cpc	r9, r1
    2894:	a1 f0       	breq	.+40     	; 0x28be <vfscanf+0x1f8>
    2896:	f4 01       	movw	r30, r8
    2898:	10 82       	st	Z, r1
    289a:	11 c0       	rjmp	.+34     	; 0x28be <vfscanf+0x1f8>
    289c:	00 62       	ori	r16, 0x20	; 32
    289e:	03 c0       	rjmp	.+6      	; 0x28a6 <vfscanf+0x1e0>
    28a0:	00 61       	ori	r16, 0x10	; 16
    28a2:	01 c0       	rjmp	.+2      	; 0x28a6 <vfscanf+0x1e0>
    28a4:	00 64       	ori	r16, 0x40	; 64
    28a6:	20 2f       	mov	r18, r16
    28a8:	a4 01       	movw	r20, r8
    28aa:	6f 2d       	mov	r22, r15
    28ac:	c6 01       	movw	r24, r12
    28ae:	a2 dd       	rcall	.-1212   	; 0x23f4 <conv_int>
    28b0:	81 11       	cpse	r24, r1
    28b2:	05 c0       	rjmp	.+10     	; 0x28be <vfscanf+0x1f8>
    28b4:	f6 01       	movw	r30, r12
    28b6:	83 81       	ldd	r24, Z+3	; 0x03
    28b8:	80 73       	andi	r24, 0x30	; 48
    28ba:	29 f4       	brne	.+10     	; 0x28c6 <vfscanf+0x200>
    28bc:	06 c0       	rjmp	.+12     	; 0x28ca <vfscanf+0x204>
    28be:	00 fd       	sbrc	r16, 0
    28c0:	18 cf       	rjmp	.-464    	; 0x26f2 <vfscanf+0x2c>
    28c2:	53 94       	inc	r5
    28c4:	16 cf       	rjmp	.-468    	; 0x26f2 <vfscanf+0x2c>
    28c6:	55 20       	and	r5, r5
    28c8:	19 f0       	breq	.+6      	; 0x28d0 <vfscanf+0x20a>
    28ca:	85 2d       	mov	r24, r5
    28cc:	90 e0       	ldi	r25, 0x00	; 0
    28ce:	02 c0       	rjmp	.+4      	; 0x28d4 <vfscanf+0x20e>
    28d0:	8f ef       	ldi	r24, 0xFF	; 255
    28d2:	9f ef       	ldi	r25, 0xFF	; 255
    28d4:	df 91       	pop	r29
    28d6:	cf 91       	pop	r28
    28d8:	1f 91       	pop	r17
    28da:	0f 91       	pop	r16
    28dc:	ff 90       	pop	r15
    28de:	ef 90       	pop	r14
    28e0:	df 90       	pop	r13
    28e2:	cf 90       	pop	r12
    28e4:	bf 90       	pop	r11
    28e6:	af 90       	pop	r10
    28e8:	9f 90       	pop	r9
    28ea:	8f 90       	pop	r8
    28ec:	7f 90       	pop	r7
    28ee:	6f 90       	pop	r6
    28f0:	5f 90       	pop	r5
    28f2:	08 95       	ret

000028f4 <isspace>:
    28f4:	91 11       	cpse	r25, r1
    28f6:	18 c1       	rjmp	.+560    	; 0x2b28 <__ctype_isfalse>
    28f8:	80 32       	cpi	r24, 0x20	; 32
    28fa:	19 f0       	breq	.+6      	; 0x2902 <isspace+0xe>
    28fc:	89 50       	subi	r24, 0x09	; 9
    28fe:	85 50       	subi	r24, 0x05	; 5
    2900:	d0 f7       	brcc	.-12     	; 0x28f6 <isspace+0x2>
    2902:	08 95       	ret

00002904 <strchr_P>:
    2904:	fc 01       	movw	r30, r24
    2906:	05 90       	lpm	r0, Z+
    2908:	06 16       	cp	r0, r22
    290a:	21 f0       	breq	.+8      	; 0x2914 <strchr_P+0x10>
    290c:	00 20       	and	r0, r0
    290e:	d9 f7       	brne	.-10     	; 0x2906 <strchr_P+0x2>
    2910:	c0 01       	movw	r24, r0
    2912:	08 95       	ret
    2914:	31 97       	sbiw	r30, 0x01	; 1
    2916:	cf 01       	movw	r24, r30
    2918:	08 95       	ret

0000291a <strnlen_P>:
    291a:	fc 01       	movw	r30, r24
    291c:	05 90       	lpm	r0, Z+
    291e:	61 50       	subi	r22, 0x01	; 1
    2920:	70 40       	sbci	r23, 0x00	; 0
    2922:	01 10       	cpse	r0, r1
    2924:	d8 f7       	brcc	.-10     	; 0x291c <strnlen_P+0x2>
    2926:	80 95       	com	r24
    2928:	90 95       	com	r25
    292a:	8e 0f       	add	r24, r30
    292c:	9f 1f       	adc	r25, r31
    292e:	08 95       	ret

00002930 <strnlen>:
    2930:	fc 01       	movw	r30, r24
    2932:	61 50       	subi	r22, 0x01	; 1
    2934:	70 40       	sbci	r23, 0x00	; 0
    2936:	01 90       	ld	r0, Z+
    2938:	01 10       	cpse	r0, r1
    293a:	d8 f7       	brcc	.-10     	; 0x2932 <strnlen+0x2>
    293c:	80 95       	com	r24
    293e:	90 95       	com	r25
    2940:	8e 0f       	add	r24, r30
    2942:	9f 1f       	adc	r25, r31
    2944:	08 95       	ret

00002946 <fgetc>:
    2946:	cf 93       	push	r28
    2948:	df 93       	push	r29
    294a:	ec 01       	movw	r28, r24
    294c:	2b 81       	ldd	r18, Y+3	; 0x03
    294e:	20 ff       	sbrs	r18, 0
    2950:	33 c0       	rjmp	.+102    	; 0x29b8 <fgetc+0x72>
    2952:	26 ff       	sbrs	r18, 6
    2954:	0a c0       	rjmp	.+20     	; 0x296a <fgetc+0x24>
    2956:	2f 7b       	andi	r18, 0xBF	; 191
    2958:	2b 83       	std	Y+3, r18	; 0x03
    295a:	8e 81       	ldd	r24, Y+6	; 0x06
    295c:	9f 81       	ldd	r25, Y+7	; 0x07
    295e:	01 96       	adiw	r24, 0x01	; 1
    2960:	9f 83       	std	Y+7, r25	; 0x07
    2962:	8e 83       	std	Y+6, r24	; 0x06
    2964:	8a 81       	ldd	r24, Y+2	; 0x02
    2966:	90 e0       	ldi	r25, 0x00	; 0
    2968:	29 c0       	rjmp	.+82     	; 0x29bc <fgetc+0x76>
    296a:	22 ff       	sbrs	r18, 2
    296c:	0f c0       	rjmp	.+30     	; 0x298c <fgetc+0x46>
    296e:	e8 81       	ld	r30, Y
    2970:	f9 81       	ldd	r31, Y+1	; 0x01
    2972:	80 81       	ld	r24, Z
    2974:	08 2e       	mov	r0, r24
    2976:	00 0c       	add	r0, r0
    2978:	99 0b       	sbc	r25, r25
    297a:	00 97       	sbiw	r24, 0x00	; 0
    297c:	19 f4       	brne	.+6      	; 0x2984 <fgetc+0x3e>
    297e:	20 62       	ori	r18, 0x20	; 32
    2980:	2b 83       	std	Y+3, r18	; 0x03
    2982:	1a c0       	rjmp	.+52     	; 0x29b8 <fgetc+0x72>
    2984:	31 96       	adiw	r30, 0x01	; 1
    2986:	f9 83       	std	Y+1, r31	; 0x01
    2988:	e8 83       	st	Y, r30
    298a:	0e c0       	rjmp	.+28     	; 0x29a8 <fgetc+0x62>
    298c:	ea 85       	ldd	r30, Y+10	; 0x0a
    298e:	fb 85       	ldd	r31, Y+11	; 0x0b
    2990:	09 95       	icall
    2992:	97 ff       	sbrs	r25, 7
    2994:	09 c0       	rjmp	.+18     	; 0x29a8 <fgetc+0x62>
    2996:	2b 81       	ldd	r18, Y+3	; 0x03
    2998:	01 96       	adiw	r24, 0x01	; 1
    299a:	11 f0       	breq	.+4      	; 0x29a0 <fgetc+0x5a>
    299c:	80 e2       	ldi	r24, 0x20	; 32
    299e:	01 c0       	rjmp	.+2      	; 0x29a2 <fgetc+0x5c>
    29a0:	80 e1       	ldi	r24, 0x10	; 16
    29a2:	82 2b       	or	r24, r18
    29a4:	8b 83       	std	Y+3, r24	; 0x03
    29a6:	08 c0       	rjmp	.+16     	; 0x29b8 <fgetc+0x72>
    29a8:	2e 81       	ldd	r18, Y+6	; 0x06
    29aa:	3f 81       	ldd	r19, Y+7	; 0x07
    29ac:	2f 5f       	subi	r18, 0xFF	; 255
    29ae:	3f 4f       	sbci	r19, 0xFF	; 255
    29b0:	3f 83       	std	Y+7, r19	; 0x07
    29b2:	2e 83       	std	Y+6, r18	; 0x06
    29b4:	99 27       	eor	r25, r25
    29b6:	02 c0       	rjmp	.+4      	; 0x29bc <fgetc+0x76>
    29b8:	8f ef       	ldi	r24, 0xFF	; 255
    29ba:	9f ef       	ldi	r25, 0xFF	; 255
    29bc:	df 91       	pop	r29
    29be:	cf 91       	pop	r28
    29c0:	08 95       	ret

000029c2 <fputc>:
    29c2:	0f 93       	push	r16
    29c4:	1f 93       	push	r17
    29c6:	cf 93       	push	r28
    29c8:	df 93       	push	r29
    29ca:	fb 01       	movw	r30, r22
    29cc:	23 81       	ldd	r18, Z+3	; 0x03
    29ce:	21 fd       	sbrc	r18, 1
    29d0:	03 c0       	rjmp	.+6      	; 0x29d8 <fputc+0x16>
    29d2:	8f ef       	ldi	r24, 0xFF	; 255
    29d4:	9f ef       	ldi	r25, 0xFF	; 255
    29d6:	2c c0       	rjmp	.+88     	; 0x2a30 <fputc+0x6e>
    29d8:	22 ff       	sbrs	r18, 2
    29da:	16 c0       	rjmp	.+44     	; 0x2a08 <fputc+0x46>
    29dc:	46 81       	ldd	r20, Z+6	; 0x06
    29de:	57 81       	ldd	r21, Z+7	; 0x07
    29e0:	24 81       	ldd	r18, Z+4	; 0x04
    29e2:	35 81       	ldd	r19, Z+5	; 0x05
    29e4:	42 17       	cp	r20, r18
    29e6:	53 07       	cpc	r21, r19
    29e8:	44 f4       	brge	.+16     	; 0x29fa <fputc+0x38>
    29ea:	a0 81       	ld	r26, Z
    29ec:	b1 81       	ldd	r27, Z+1	; 0x01
    29ee:	9d 01       	movw	r18, r26
    29f0:	2f 5f       	subi	r18, 0xFF	; 255
    29f2:	3f 4f       	sbci	r19, 0xFF	; 255
    29f4:	31 83       	std	Z+1, r19	; 0x01
    29f6:	20 83       	st	Z, r18
    29f8:	8c 93       	st	X, r24
    29fa:	26 81       	ldd	r18, Z+6	; 0x06
    29fc:	37 81       	ldd	r19, Z+7	; 0x07
    29fe:	2f 5f       	subi	r18, 0xFF	; 255
    2a00:	3f 4f       	sbci	r19, 0xFF	; 255
    2a02:	37 83       	std	Z+7, r19	; 0x07
    2a04:	26 83       	std	Z+6, r18	; 0x06
    2a06:	14 c0       	rjmp	.+40     	; 0x2a30 <fputc+0x6e>
    2a08:	8b 01       	movw	r16, r22
    2a0a:	ec 01       	movw	r28, r24
    2a0c:	fb 01       	movw	r30, r22
    2a0e:	00 84       	ldd	r0, Z+8	; 0x08
    2a10:	f1 85       	ldd	r31, Z+9	; 0x09
    2a12:	e0 2d       	mov	r30, r0
    2a14:	09 95       	icall
    2a16:	89 2b       	or	r24, r25
    2a18:	e1 f6       	brne	.-72     	; 0x29d2 <fputc+0x10>
    2a1a:	d8 01       	movw	r26, r16
    2a1c:	16 96       	adiw	r26, 0x06	; 6
    2a1e:	8d 91       	ld	r24, X+
    2a20:	9c 91       	ld	r25, X
    2a22:	17 97       	sbiw	r26, 0x07	; 7
    2a24:	01 96       	adiw	r24, 0x01	; 1
    2a26:	17 96       	adiw	r26, 0x07	; 7
    2a28:	9c 93       	st	X, r25
    2a2a:	8e 93       	st	-X, r24
    2a2c:	16 97       	sbiw	r26, 0x06	; 6
    2a2e:	ce 01       	movw	r24, r28
    2a30:	df 91       	pop	r29
    2a32:	cf 91       	pop	r28
    2a34:	1f 91       	pop	r17
    2a36:	0f 91       	pop	r16
    2a38:	08 95       	ret

00002a3a <ungetc>:
    2a3a:	fb 01       	movw	r30, r22
    2a3c:	23 81       	ldd	r18, Z+3	; 0x03
    2a3e:	20 ff       	sbrs	r18, 0
    2a40:	12 c0       	rjmp	.+36     	; 0x2a66 <ungetc+0x2c>
    2a42:	26 fd       	sbrc	r18, 6
    2a44:	10 c0       	rjmp	.+32     	; 0x2a66 <ungetc+0x2c>
    2a46:	8f 3f       	cpi	r24, 0xFF	; 255
    2a48:	3f ef       	ldi	r19, 0xFF	; 255
    2a4a:	93 07       	cpc	r25, r19
    2a4c:	61 f0       	breq	.+24     	; 0x2a66 <ungetc+0x2c>
    2a4e:	82 83       	std	Z+2, r24	; 0x02
    2a50:	2f 7d       	andi	r18, 0xDF	; 223
    2a52:	20 64       	ori	r18, 0x40	; 64
    2a54:	23 83       	std	Z+3, r18	; 0x03
    2a56:	26 81       	ldd	r18, Z+6	; 0x06
    2a58:	37 81       	ldd	r19, Z+7	; 0x07
    2a5a:	21 50       	subi	r18, 0x01	; 1
    2a5c:	31 09       	sbc	r19, r1
    2a5e:	37 83       	std	Z+7, r19	; 0x07
    2a60:	26 83       	std	Z+6, r18	; 0x06
    2a62:	99 27       	eor	r25, r25
    2a64:	08 95       	ret
    2a66:	8f ef       	ldi	r24, 0xFF	; 255
    2a68:	9f ef       	ldi	r25, 0xFF	; 255
    2a6a:	08 95       	ret

00002a6c <__ultoa_invert>:
    2a6c:	fa 01       	movw	r30, r20
    2a6e:	aa 27       	eor	r26, r26
    2a70:	28 30       	cpi	r18, 0x08	; 8
    2a72:	51 f1       	breq	.+84     	; 0x2ac8 <__ultoa_invert+0x5c>
    2a74:	20 31       	cpi	r18, 0x10	; 16
    2a76:	81 f1       	breq	.+96     	; 0x2ad8 <__ultoa_invert+0x6c>
    2a78:	e8 94       	clt
    2a7a:	6f 93       	push	r22
    2a7c:	6e 7f       	andi	r22, 0xFE	; 254
    2a7e:	6e 5f       	subi	r22, 0xFE	; 254
    2a80:	7f 4f       	sbci	r23, 0xFF	; 255
    2a82:	8f 4f       	sbci	r24, 0xFF	; 255
    2a84:	9f 4f       	sbci	r25, 0xFF	; 255
    2a86:	af 4f       	sbci	r26, 0xFF	; 255
    2a88:	b1 e0       	ldi	r27, 0x01	; 1
    2a8a:	3e d0       	rcall	.+124    	; 0x2b08 <__ultoa_invert+0x9c>
    2a8c:	b4 e0       	ldi	r27, 0x04	; 4
    2a8e:	3c d0       	rcall	.+120    	; 0x2b08 <__ultoa_invert+0x9c>
    2a90:	67 0f       	add	r22, r23
    2a92:	78 1f       	adc	r23, r24
    2a94:	89 1f       	adc	r24, r25
    2a96:	9a 1f       	adc	r25, r26
    2a98:	a1 1d       	adc	r26, r1
    2a9a:	68 0f       	add	r22, r24
    2a9c:	79 1f       	adc	r23, r25
    2a9e:	8a 1f       	adc	r24, r26
    2aa0:	91 1d       	adc	r25, r1
    2aa2:	a1 1d       	adc	r26, r1
    2aa4:	6a 0f       	add	r22, r26
    2aa6:	71 1d       	adc	r23, r1
    2aa8:	81 1d       	adc	r24, r1
    2aaa:	91 1d       	adc	r25, r1
    2aac:	a1 1d       	adc	r26, r1
    2aae:	20 d0       	rcall	.+64     	; 0x2af0 <__ultoa_invert+0x84>
    2ab0:	09 f4       	brne	.+2      	; 0x2ab4 <__ultoa_invert+0x48>
    2ab2:	68 94       	set
    2ab4:	3f 91       	pop	r19
    2ab6:	2a e0       	ldi	r18, 0x0A	; 10
    2ab8:	26 9f       	mul	r18, r22
    2aba:	11 24       	eor	r1, r1
    2abc:	30 19       	sub	r19, r0
    2abe:	30 5d       	subi	r19, 0xD0	; 208
    2ac0:	31 93       	st	Z+, r19
    2ac2:	de f6       	brtc	.-74     	; 0x2a7a <__ultoa_invert+0xe>
    2ac4:	cf 01       	movw	r24, r30
    2ac6:	08 95       	ret
    2ac8:	46 2f       	mov	r20, r22
    2aca:	47 70       	andi	r20, 0x07	; 7
    2acc:	40 5d       	subi	r20, 0xD0	; 208
    2ace:	41 93       	st	Z+, r20
    2ad0:	b3 e0       	ldi	r27, 0x03	; 3
    2ad2:	0f d0       	rcall	.+30     	; 0x2af2 <__ultoa_invert+0x86>
    2ad4:	c9 f7       	brne	.-14     	; 0x2ac8 <__ultoa_invert+0x5c>
    2ad6:	f6 cf       	rjmp	.-20     	; 0x2ac4 <__ultoa_invert+0x58>
    2ad8:	46 2f       	mov	r20, r22
    2ada:	4f 70       	andi	r20, 0x0F	; 15
    2adc:	40 5d       	subi	r20, 0xD0	; 208
    2ade:	4a 33       	cpi	r20, 0x3A	; 58
    2ae0:	18 f0       	brcs	.+6      	; 0x2ae8 <__ultoa_invert+0x7c>
    2ae2:	49 5d       	subi	r20, 0xD9	; 217
    2ae4:	31 fd       	sbrc	r19, 1
    2ae6:	40 52       	subi	r20, 0x20	; 32
    2ae8:	41 93       	st	Z+, r20
    2aea:	02 d0       	rcall	.+4      	; 0x2af0 <__ultoa_invert+0x84>
    2aec:	a9 f7       	brne	.-22     	; 0x2ad8 <__ultoa_invert+0x6c>
    2aee:	ea cf       	rjmp	.-44     	; 0x2ac4 <__ultoa_invert+0x58>
    2af0:	b4 e0       	ldi	r27, 0x04	; 4
    2af2:	a6 95       	lsr	r26
    2af4:	97 95       	ror	r25
    2af6:	87 95       	ror	r24
    2af8:	77 95       	ror	r23
    2afa:	67 95       	ror	r22
    2afc:	ba 95       	dec	r27
    2afe:	c9 f7       	brne	.-14     	; 0x2af2 <__ultoa_invert+0x86>
    2b00:	00 97       	sbiw	r24, 0x00	; 0
    2b02:	61 05       	cpc	r22, r1
    2b04:	71 05       	cpc	r23, r1
    2b06:	08 95       	ret
    2b08:	9b 01       	movw	r18, r22
    2b0a:	ac 01       	movw	r20, r24
    2b0c:	0a 2e       	mov	r0, r26
    2b0e:	06 94       	lsr	r0
    2b10:	57 95       	ror	r21
    2b12:	47 95       	ror	r20
    2b14:	37 95       	ror	r19
    2b16:	27 95       	ror	r18
    2b18:	ba 95       	dec	r27
    2b1a:	c9 f7       	brne	.-14     	; 0x2b0e <__ultoa_invert+0xa2>
    2b1c:	62 0f       	add	r22, r18
    2b1e:	73 1f       	adc	r23, r19
    2b20:	84 1f       	adc	r24, r20
    2b22:	95 1f       	adc	r25, r21
    2b24:	a0 1d       	adc	r26, r0
    2b26:	08 95       	ret

00002b28 <__ctype_isfalse>:
    2b28:	99 27       	eor	r25, r25
    2b2a:	88 27       	eor	r24, r24

00002b2c <__ctype_istrue>:
    2b2c:	08 95       	ret

00002b2e <_exit>:
    2b2e:	f8 94       	cli

00002b30 <__stop_program>:
    2b30:	ff cf       	rjmp	.-2      	; 0x2b30 <__stop_program>
